; generated by Component: ARM Compiler 5.05 update 1 (build 106) Tool: ArmCC [4d0efa]
; commandline ArmCC [--list --debug -c --asm --interleave -o..\obj\lcd.o --asm_dir=.\ --list_dir=.\ --depend=..\obj\lcd.d --cpu=Cortex-M3 --apcs=interwork -O0 --diag_suppress=9931 -I..\HARDWARE\LED -I..\SYSTEM\delay -I..\SYSTEM\sys -I..\SYSTEM\usart -I..\USER -I..\STM32F10x_FWLib\inc -I..\CORE -I..\HARDWARE\KEY -I..\HARDWARE\LCD -I..\IAP -I..\HARDWARE\STMFLASH -I"C:\Users\77621\Desktop\实验47 串口IAP实验\IAP-Bootloader V1.0\USER\RTE" -ID:\Keil_v5\ARM\PACK\Keil\STM32F1xx_DFP\1.0.5\Device\Include -ID:\Keil_v5\ARM\CMSIS\Include -D__UVISION_VERSION=514 -DSTM32F10X_HD -DSTM32F10X_HD -DUSE_STDPERIPH_DRIVER --omf_browse=..\obj\lcd.crf ..\HARDWARE\LCD\lcd.c]
                          THUMB

                          AREA ||.text||, CODE, READONLY, ALIGN=2

                          REQUIRE _printf_percent
                          REQUIRE _printf_x
                          REQUIRE _printf_longlong_hex
                  LCD_WR_REG PROC
;;;87     //regval:寄存器值
;;;88     void LCD_WR_REG(u16 regval)
000000  49f7              LDR      r1,|L1.992|
;;;89     {   
;;;90     	LCD->LCD_REG=regval;//写入要写的寄存器序号	 
000002  8008              STRH     r0,[r1,#0]
;;;91     }
000004  4770              BX       lr
;;;92     //写LCD数据
                          ENDP

                  LCD_WR_DATA PROC
;;;93     //data:要写入的值
;;;94     void LCD_WR_DATA(u16 data)
000006  49f6              LDR      r1,|L1.992|
;;;95     {	 
;;;96     	LCD->LCD_RAM=data;		 
000008  1c89              ADDS     r1,r1,#2
00000a  8008              STRH     r0,[r1,#0]
;;;97     }
00000c  4770              BX       lr
;;;98     //读LCD数据
                          ENDP

                  LCD_RD_DATA PROC
;;;99     //返回值:读到的值
;;;100    u16 LCD_RD_DATA(void)
00000e  b508              PUSH     {r3,lr}
;;;101    {
;;;102    	vu16 ram;			//防止被优化
;;;103    	ram=LCD->LCD_RAM;	
000010  48f3              LDR      r0,|L1.992|
000012  1c80              ADDS     r0,r0,#2
000014  8800              LDRH     r0,[r0,#0]
000016  9000              STR      r0,[sp,#0]
;;;104    	return ram;	 
000018  f8bd0000          LDRH     r0,[sp,#0]
;;;105    }					   
00001c  bd08              POP      {r3,pc}
;;;106    //写寄存器
                          ENDP

                  LCD_WriteReg PROC
;;;108    //LCD_RegValue:要写入的数据
;;;109    void LCD_WriteReg(u16 LCD_Reg,u16 LCD_RegValue)
00001e  4af0              LDR      r2,|L1.992|
;;;110    {	
;;;111    	LCD->LCD_REG = LCD_Reg;		//写入要写的寄存器序号	 
000020  8010              STRH     r0,[r2,#0]
;;;112    	LCD->LCD_RAM = LCD_RegValue;//写入数据	    		 
000022  1c92              ADDS     r2,r2,#2
000024  8011              STRH     r1,[r2,#0]
;;;113    }	   
000026  4770              BX       lr
;;;114    //读寄存器
                          ENDP

                  LCD_ReadReg PROC
;;;116    //返回值:读到的数据
;;;117    u16 LCD_ReadReg(u16 LCD_Reg)
000028  b510              PUSH     {r4,lr}
;;;118    {										   
00002a  4604              MOV      r4,r0
;;;119    	LCD_WR_REG(LCD_Reg);		//写入要读的寄存器序号
00002c  4620              MOV      r0,r4
00002e  f7fffffe          BL       LCD_WR_REG
;;;120    	delay_us(5);		  
000032  2005              MOVS     r0,#5
000034  f7fffffe          BL       delay_us
;;;121    	return LCD_RD_DATA();		//返回读到的值
000038  f7fffffe          BL       LCD_RD_DATA
;;;122    }   
00003c  bd10              POP      {r4,pc}
;;;123    //开始写GRAM
                          ENDP

                  LCD_WriteRAM_Prepare PROC
;;;124    void LCD_WriteRAM_Prepare(void)
00003e  48e9              LDR      r0,|L1.996|
;;;125    {
;;;126     	LCD->LCD_REG=lcddev.wramcmd;	  
000040  8900              LDRH     r0,[r0,#8]  ; lcddev
000042  49e7              LDR      r1,|L1.992|
000044  8008              STRH     r0,[r1,#0]
;;;127    }	 
000046  4770              BX       lr
;;;128    //LCD写GRAM
                          ENDP

                  LCD_WriteRAM PROC
;;;129    //RGB_Code:颜色值
;;;130    void LCD_WriteRAM(u16 RGB_Code)
000048  49e5              LDR      r1,|L1.992|
;;;131    {							    
;;;132    	LCD->LCD_RAM = RGB_Code;//写十六位GRAM
00004a  1c89              ADDS     r1,r1,#2
00004c  8008              STRH     r0,[r1,#0]
;;;133    }
00004e  4770              BX       lr
;;;134    //从ILI93xx读出的数据为GBR格式，而我们写入的时候为RGB格式。
                          ENDP

                  LCD_BGR2RGB PROC
;;;137    //返回值：RGB格式的颜色值
;;;138    u16 LCD_BGR2RGB(u16 c)
000050  b530              PUSH     {r4,r5,lr}
;;;139    {
000052  4601              MOV      r1,r0
;;;140    	u16  r,g,b,rgb;   
;;;141    	b=(c>>0)&0x1f;
000054  f001041f          AND      r4,r1,#0x1f
;;;142    	g=(c>>5)&0x3f;
000058  f3c11345          UBFX     r3,r1,#5,#6
;;;143    	r=(c>>11)&0x1f;	 
00005c  0aca              LSRS     r2,r1,#11
;;;144    	rgb=(b<<11)+(g<<5)+(r<<0);		 
00005e  02e5              LSLS     r5,r4,#11
000060  eb051543          ADD      r5,r5,r3,LSL #5
000064  4415              ADD      r5,r5,r2
000066  b2a8              UXTH     r0,r5
;;;145    	return(rgb);
;;;146    } 
000068  bd30              POP      {r4,r5,pc}
;;;147    //当mdk -O1时间优化时需要设置
                          ENDP

                  opt_delay PROC
;;;148    //延时i
;;;149    void opt_delay(u8 i)
00006a  bf00              NOP      
                  |L1.108|
;;;150    {
;;;151    	while(i--);
00006c  0001              MOVS     r1,r0
00006e  f1a00201          SUB      r2,r0,#1
000072  b2d0              UXTB     r0,r2
000074  d1fa              BNE      |L1.108|
;;;152    }
000076  4770              BX       lr
;;;153    //读取个某点的颜色值	 
                          ENDP

                  LCD_SetCursor PROC
;;;196    //Ypos:纵坐标
;;;197    void LCD_SetCursor(u16 Xpos, u16 Ypos)
000078  b510              PUSH     {r4,lr}
;;;198    {	 
00007a  4603              MOV      r3,r0
00007c  460c              MOV      r4,r1
;;;199     	if(lcddev.id==0X9341||lcddev.id==0X5310)
00007e  48d9              LDR      r0,|L1.996|
000080  8880              LDRH     r0,[r0,#4]  ; lcddev
000082  f2493141          MOV      r1,#0x9341
000086  4288              CMP      r0,r1
000088  d005              BEQ      |L1.150|
00008a  48d6              LDR      r0,|L1.996|
00008c  8880              LDRH     r0,[r0,#4]  ; lcddev
00008e  f2453110          MOV      r1,#0x5310
000092  4288              CMP      r0,r1
000094  d114              BNE      |L1.192|
                  |L1.150|
;;;200    	{		    
;;;201    		LCD_WR_REG(lcddev.setxcmd); 
000096  49d3              LDR      r1,|L1.996|
000098  8948              LDRH     r0,[r1,#0xa]  ; lcddev
00009a  f7fffffe          BL       LCD_WR_REG
;;;202    		LCD_WR_DATA(Xpos>>8);LCD_WR_DATA(Xpos&0XFF); 			 
00009e  1218              ASRS     r0,r3,#8
0000a0  f7fffffe          BL       LCD_WR_DATA
0000a4  b2d8              UXTB     r0,r3
0000a6  f7fffffe          BL       LCD_WR_DATA
;;;203    		LCD_WR_REG(lcddev.setycmd); 
0000aa  49ce              LDR      r1,|L1.996|
0000ac  8988              LDRH     r0,[r1,#0xc]  ; lcddev
0000ae  f7fffffe          BL       LCD_WR_REG
;;;204    		LCD_WR_DATA(Ypos>>8);LCD_WR_DATA(Ypos&0XFF); 		
0000b2  1220              ASRS     r0,r4,#8
0000b4  f7fffffe          BL       LCD_WR_DATA
0000b8  b2e0              UXTB     r0,r4
0000ba  f7fffffe          BL       LCD_WR_DATA
0000be  e0ab              B        |L1.536|
                  |L1.192|
;;;205    	}else if(lcddev.id==0X6804)
0000c0  48c8              LDR      r0,|L1.996|
0000c2  8880              LDRH     r0,[r0,#4]  ; lcddev
0000c4  f6460104          MOV      r1,#0x6804
0000c8  4288              CMP      r0,r1
0000ca  d11d              BNE      |L1.264|
;;;206    	{
;;;207    		if(lcddev.dir==1)Xpos=lcddev.width-1-Xpos;//横屏时处理
0000cc  48c5              LDR      r0,|L1.996|
0000ce  7980              LDRB     r0,[r0,#6]  ; lcddev
0000d0  2801              CMP      r0,#1
0000d2  d104              BNE      |L1.222|
0000d4  48c3              LDR      r0,|L1.996|
0000d6  8800              LDRH     r0,[r0,#0]  ; lcddev
0000d8  1e40              SUBS     r0,r0,#1
0000da  1ac0              SUBS     r0,r0,r3
0000dc  b283              UXTH     r3,r0
                  |L1.222|
;;;208    		LCD_WR_REG(lcddev.setxcmd); 
0000de  49c1              LDR      r1,|L1.996|
0000e0  8948              LDRH     r0,[r1,#0xa]  ; lcddev
0000e2  f7fffffe          BL       LCD_WR_REG
;;;209    		LCD_WR_DATA(Xpos>>8);LCD_WR_DATA(Xpos&0XFF); 
0000e6  1218              ASRS     r0,r3,#8
0000e8  f7fffffe          BL       LCD_WR_DATA
0000ec  b2d8              UXTB     r0,r3
0000ee  f7fffffe          BL       LCD_WR_DATA
;;;210    		LCD_WR_REG(lcddev.setycmd); 
0000f2  49bc              LDR      r1,|L1.996|
0000f4  8988              LDRH     r0,[r1,#0xc]  ; lcddev
0000f6  f7fffffe          BL       LCD_WR_REG
;;;211    		LCD_WR_DATA(Ypos>>8);LCD_WR_DATA(Ypos&0XFF); 
0000fa  1220              ASRS     r0,r4,#8
0000fc  f7fffffe          BL       LCD_WR_DATA
000100  b2e0              UXTB     r0,r4
000102  f7fffffe          BL       LCD_WR_DATA
000106  e087              B        |L1.536|
                  |L1.264|
;;;212    	}else if(lcddev.id==0X1963)
000108  48b6              LDR      r0,|L1.996|
00010a  8880              LDRH     r0,[r0,#4]  ; lcddev
00010c  f6411163          MOV      r1,#0x1963
000110  4288              CMP      r0,r1
000112  d147              BNE      |L1.420|
;;;213    	{  			 		
;;;214    		if(lcddev.dir==0)//x坐标需要变换
000114  48b3              LDR      r0,|L1.996|
000116  7980              LDRB     r0,[r0,#6]  ; lcddev
000118  b9a8              CBNZ     r0,|L1.326|
;;;215    		{
;;;216    			Xpos=lcddev.width-1-Xpos;
00011a  48b2              LDR      r0,|L1.996|
00011c  8800              LDRH     r0,[r0,#0]  ; lcddev
00011e  1e40              SUBS     r0,r0,#1
000120  1ac0              SUBS     r0,r0,r3
000122  b283              UXTH     r3,r0
;;;217    			LCD_WR_REG(lcddev.setxcmd); 
000124  49af              LDR      r1,|L1.996|
000126  8948              LDRH     r0,[r1,#0xa]  ; lcddev
000128  f7fffffe          BL       LCD_WR_REG
;;;218    			LCD_WR_DATA(0);LCD_WR_DATA(0); 		
00012c  2000              MOVS     r0,#0
00012e  f7fffffe          BL       LCD_WR_DATA
000132  2000              MOVS     r0,#0
000134  f7fffffe          BL       LCD_WR_DATA
;;;219    			LCD_WR_DATA(Xpos>>8);LCD_WR_DATA(Xpos&0XFF);		 	 
000138  1218              ASRS     r0,r3,#8
00013a  f7fffffe          BL       LCD_WR_DATA
00013e  b2d8              UXTB     r0,r3
000140  f7fffffe          BL       LCD_WR_DATA
000144  e016              B        |L1.372|
                  |L1.326|
;;;220    		}else
;;;221    		{
;;;222    			LCD_WR_REG(lcddev.setxcmd); 
000146  49a7              LDR      r1,|L1.996|
000148  8948              LDRH     r0,[r1,#0xa]  ; lcddev
00014a  f7fffffe          BL       LCD_WR_REG
;;;223    			LCD_WR_DATA(Xpos>>8);LCD_WR_DATA(Xpos&0XFF); 		
00014e  1218              ASRS     r0,r3,#8
000150  f7fffffe          BL       LCD_WR_DATA
000154  b2d8              UXTB     r0,r3
000156  f7fffffe          BL       LCD_WR_DATA
;;;224    			LCD_WR_DATA((lcddev.width-1)>>8);LCD_WR_DATA((lcddev.width-1)&0XFF);		 	 			
00015a  49a2              LDR      r1,|L1.996|
00015c  8809              LDRH     r1,[r1,#0]  ; lcddev
00015e  1e49              SUBS     r1,r1,#1
000160  f3c1200f          UBFX     r0,r1,#8,#16
000164  f7fffffe          BL       LCD_WR_DATA
000168  499e              LDR      r1,|L1.996|
00016a  7809              LDRB     r1,[r1,#0]  ; lcddev
00016c  1e49              SUBS     r1,r1,#1
00016e  b2c8              UXTB     r0,r1
000170  f7fffffe          BL       LCD_WR_DATA
                  |L1.372|
;;;225    		}	
;;;226    		LCD_WR_REG(lcddev.setycmd); 
000174  499b              LDR      r1,|L1.996|
000176  8988              LDRH     r0,[r1,#0xc]  ; lcddev
000178  f7fffffe          BL       LCD_WR_REG
;;;227    		LCD_WR_DATA(Ypos>>8);LCD_WR_DATA(Ypos&0XFF); 		
00017c  1220              ASRS     r0,r4,#8
00017e  f7fffffe          BL       LCD_WR_DATA
000182  b2e0              UXTB     r0,r4
000184  f7fffffe          BL       LCD_WR_DATA
;;;228    		LCD_WR_DATA((lcddev.height-1)>>8);LCD_WR_DATA((lcddev.height-1)&0XFF); 			 		
000188  4996              LDR      r1,|L1.996|
00018a  8849              LDRH     r1,[r1,#2]  ; lcddev
00018c  1e49              SUBS     r1,r1,#1
00018e  f3c1200f          UBFX     r0,r1,#8,#16
000192  f7fffffe          BL       LCD_WR_DATA
000196  4993              LDR      r1,|L1.996|
000198  7889              LDRB     r1,[r1,#2]  ; lcddev
00019a  1e49              SUBS     r1,r1,#1
00019c  b2c8              UXTB     r0,r1
00019e  f7fffffe          BL       LCD_WR_DATA
0001a2  e039              B        |L1.536|
                  |L1.420|
;;;229    		
;;;230    	}else if(lcddev.id==0X5510)
0001a4  488f              LDR      r0,|L1.996|
0001a6  8880              LDRH     r0,[r0,#4]  ; lcddev
0001a8  f2455110          MOV      r1,#0x5510
0001ac  4288              CMP      r0,r1
0001ae  d120              BNE      |L1.498|
;;;231    	{
;;;232    		LCD_WR_REG(lcddev.setxcmd);LCD_WR_DATA(Xpos>>8); 		
0001b0  498c              LDR      r1,|L1.996|
0001b2  8948              LDRH     r0,[r1,#0xa]  ; lcddev
0001b4  f7fffffe          BL       LCD_WR_REG
0001b8  1218              ASRS     r0,r3,#8
0001ba  f7fffffe          BL       LCD_WR_DATA
;;;233    		LCD_WR_REG(lcddev.setxcmd+1);LCD_WR_DATA(Xpos&0XFF);			 
0001be  4989              LDR      r1,|L1.996|
0001c0  8949              LDRH     r1,[r1,#0xa]  ; lcddev
0001c2  1c49              ADDS     r1,r1,#1
0001c4  b288              UXTH     r0,r1
0001c6  f7fffffe          BL       LCD_WR_REG
0001ca  b2d8              UXTB     r0,r3
0001cc  f7fffffe          BL       LCD_WR_DATA
;;;234    		LCD_WR_REG(lcddev.setycmd);LCD_WR_DATA(Ypos>>8);  		
0001d0  4984              LDR      r1,|L1.996|
0001d2  8988              LDRH     r0,[r1,#0xc]  ; lcddev
0001d4  f7fffffe          BL       LCD_WR_REG
0001d8  1220              ASRS     r0,r4,#8
0001da  f7fffffe          BL       LCD_WR_DATA
;;;235    		LCD_WR_REG(lcddev.setycmd+1);LCD_WR_DATA(Ypos&0XFF);			
0001de  4981              LDR      r1,|L1.996|
0001e0  8989              LDRH     r1,[r1,#0xc]  ; lcddev
0001e2  1c49              ADDS     r1,r1,#1
0001e4  b288              UXTH     r0,r1
0001e6  f7fffffe          BL       LCD_WR_REG
0001ea  b2e0              UXTB     r0,r4
0001ec  f7fffffe          BL       LCD_WR_DATA
0001f0  e012              B        |L1.536|
                  |L1.498|
;;;236    	}else
;;;237    	{
;;;238    		if(lcddev.dir==1)Xpos=lcddev.width-1-Xpos;//横屏其实就是调转x,y坐标
0001f2  487c              LDR      r0,|L1.996|
0001f4  7980              LDRB     r0,[r0,#6]  ; lcddev
0001f6  2801              CMP      r0,#1
0001f8  d104              BNE      |L1.516|
0001fa  487a              LDR      r0,|L1.996|
0001fc  8800              LDRH     r0,[r0,#0]  ; lcddev
0001fe  1e40              SUBS     r0,r0,#1
000200  1ac0              SUBS     r0,r0,r3
000202  b283              UXTH     r3,r0
                  |L1.516|
;;;239    		LCD_WriteReg(lcddev.setxcmd, Xpos);
000204  4977              LDR      r1,|L1.996|
000206  8948              LDRH     r0,[r1,#0xa]  ; lcddev
000208  4619              MOV      r1,r3
00020a  f7fffffe          BL       LCD_WriteReg
;;;240    		LCD_WriteReg(lcddev.setycmd, Ypos);
00020e  4975              LDR      r1,|L1.996|
000210  8988              LDRH     r0,[r1,#0xc]  ; lcddev
000212  4621              MOV      r1,r4
000214  f7fffffe          BL       LCD_WriteReg
                  |L1.536|
;;;241    	}	 
;;;242    } 		 
000218  bd10              POP      {r4,pc}
;;;243    //设置LCD的自动扫描方向
                          ENDP

                  LCD_ReadPoint PROC
;;;155    //返回值:此点的颜色
;;;156    u16 LCD_ReadPoint(u16 x,u16 y)
00021a  e92d41f0          PUSH     {r4-r8,lr}
;;;157    {
00021e  4605              MOV      r5,r0
000220  460e              MOV      r6,r1
;;;158     	u16 r=0,g=0,b=0;
000222  2400              MOVS     r4,#0
000224  2700              MOVS     r7,#0
000226  46a0              MOV      r8,r4
;;;159    	if(x>=lcddev.width||y>=lcddev.height)return 0;	//超过了范围,直接返回		   
000228  486e              LDR      r0,|L1.996|
00022a  8800              LDRH     r0,[r0,#0]  ; lcddev
00022c  42a8              CMP      r0,r5
00022e  dd03              BLE      |L1.568|
000230  486c              LDR      r0,|L1.996|
000232  8840              LDRH     r0,[r0,#2]  ; lcddev
000234  42b0              CMP      r0,r6
000236  dc02              BGT      |L1.574|
                  |L1.568|
000238  2000              MOVS     r0,#0
                  |L1.570|
;;;160    	LCD_SetCursor(x,y);	    
;;;161    	if(lcddev.id==0X9341||lcddev.id==0X6804||lcddev.id==0X5310||lcddev.id==0X1963)LCD_WR_REG(0X2E);//9341/6804/3510/1963 发送读GRAM指令
;;;162    	else if(lcddev.id==0X5510)LCD_WR_REG(0X2E00);	//5510 发送读GRAM指令
;;;163    	else LCD_WR_REG(0X22);      		 			//其他IC发送读GRAM指令
;;;164    	if(lcddev.id==0X9320)opt_delay(2);				//FOR 9320,延时2us	    
;;;165     	r=LCD_RD_DATA();								//dummy Read	   
;;;166    	if(lcddev.id==0X1963)return r;					//1963直接读就可以 
;;;167    	opt_delay(2);	  
;;;168     	r=LCD_RD_DATA();  		  						//实际坐标颜色
;;;169     	if(lcddev.id==0X9341||lcddev.id==0X5310||lcddev.id==0X5510)		//9341/NT35310/NT35510要分2次读出
;;;170     	{
;;;171    		opt_delay(2);	  
;;;172    		b=LCD_RD_DATA(); 
;;;173    		g=r&0XFF;		//对于9341/5310/5510,第一次读取的是RG的值,R在前,G在后,各占8位
;;;174    		g<<=8;
;;;175    	} 
;;;176    	if(lcddev.id==0X9325||lcddev.id==0X4535||lcddev.id==0X4531||lcddev.id==0XB505||lcddev.id==0XC505)return r;	//这几种IC直接返回颜色值
;;;177    	else if(lcddev.id==0X9341||lcddev.id==0X5310||lcddev.id==0X5510)return (((r>>11)<<11)|((g>>10)<<5)|(b>>11));//ILI9341/NT35310/NT35510需要公式转换一下
;;;178    	else return LCD_BGR2RGB(r);						//其他IC
;;;179    }			 
00023a  e8bd81f0          POP      {r4-r8,pc}
                  |L1.574|
00023e  4631              MOV      r1,r6                 ;160
000240  4628              MOV      r0,r5                 ;160
000242  f7fffffe          BL       LCD_SetCursor
000246  4867              LDR      r0,|L1.996|
000248  8880              LDRH     r0,[r0,#4]            ;161  ; lcddev
00024a  f2493141          MOV      r1,#0x9341            ;161
00024e  4288              CMP      r0,r1                 ;161
000250  d011              BEQ      |L1.630|
000252  4864              LDR      r0,|L1.996|
000254  8880              LDRH     r0,[r0,#4]            ;161  ; lcddev
000256  f6460104          MOV      r1,#0x6804            ;161
00025a  4288              CMP      r0,r1                 ;161
00025c  d00b              BEQ      |L1.630|
00025e  4861              LDR      r0,|L1.996|
000260  8880              LDRH     r0,[r0,#4]            ;161  ; lcddev
000262  f2453110          MOV      r1,#0x5310            ;161
000266  4288              CMP      r0,r1                 ;161
000268  d005              BEQ      |L1.630|
00026a  485e              LDR      r0,|L1.996|
00026c  8880              LDRH     r0,[r0,#4]            ;161  ; lcddev
00026e  f6411163          MOV      r1,#0x1963            ;161
000272  4288              CMP      r0,r1                 ;161
000274  d103              BNE      |L1.638|
                  |L1.630|
000276  202e              MOVS     r0,#0x2e              ;161
000278  f7fffffe          BL       LCD_WR_REG
00027c  e00d              B        |L1.666|
                  |L1.638|
00027e  4859              LDR      r0,|L1.996|
000280  8880              LDRH     r0,[r0,#4]            ;162  ; lcddev
000282  f2455110          MOV      r1,#0x5510            ;162
000286  4288              CMP      r0,r1                 ;162
000288  d104              BNE      |L1.660|
00028a  f44f5038          MOV      r0,#0x2e00            ;162
00028e  f7fffffe          BL       LCD_WR_REG
000292  e002              B        |L1.666|
                  |L1.660|
000294  2022              MOVS     r0,#0x22              ;163
000296  f7fffffe          BL       LCD_WR_REG
                  |L1.666|
00029a  4852              LDR      r0,|L1.996|
00029c  8880              LDRH     r0,[r0,#4]            ;164  ; lcddev
00029e  f2493120          MOV      r1,#0x9320            ;164
0002a2  4288              CMP      r0,r1                 ;164
0002a4  d102              BNE      |L1.684|
0002a6  2002              MOVS     r0,#2                 ;164
0002a8  f7fffffe          BL       opt_delay
                  |L1.684|
0002ac  f7fffffe          BL       LCD_RD_DATA
0002b0  4604              MOV      r4,r0                 ;165
0002b2  484c              LDR      r0,|L1.996|
0002b4  8880              LDRH     r0,[r0,#4]            ;166  ; lcddev
0002b6  f6411163          MOV      r1,#0x1963            ;166
0002ba  4288              CMP      r0,r1                 ;166
0002bc  d101              BNE      |L1.706|
0002be  4620              MOV      r0,r4                 ;166
0002c0  e7bb              B        |L1.570|
                  |L1.706|
0002c2  2002              MOVS     r0,#2                 ;167
0002c4  f7fffffe          BL       opt_delay
0002c8  f7fffffe          BL       LCD_RD_DATA
0002cc  4604              MOV      r4,r0                 ;168
0002ce  4845              LDR      r0,|L1.996|
0002d0  8880              LDRH     r0,[r0,#4]            ;169  ; lcddev
0002d2  f2493141          MOV      r1,#0x9341            ;169
0002d6  4288              CMP      r0,r1                 ;169
0002d8  d00b              BEQ      |L1.754|
0002da  4842              LDR      r0,|L1.996|
0002dc  8880              LDRH     r0,[r0,#4]            ;169  ; lcddev
0002de  f2453110          MOV      r1,#0x5310            ;169
0002e2  4288              CMP      r0,r1                 ;169
0002e4  d005              BEQ      |L1.754|
0002e6  483f              LDR      r0,|L1.996|
0002e8  8880              LDRH     r0,[r0,#4]            ;169  ; lcddev
0002ea  f2455110          MOV      r1,#0x5510            ;169
0002ee  4288              CMP      r0,r1                 ;169
0002f0  d10a              BNE      |L1.776|
                  |L1.754|
0002f2  2002              MOVS     r0,#2                 ;171
0002f4  f7fffffe          BL       opt_delay
0002f8  f7fffffe          BL       LCD_RD_DATA
0002fc  4680              MOV      r8,r0                 ;172
0002fe  b2e7              UXTB     r7,r4                 ;173
000300  f64f70ff          MOV      r0,#0xffff            ;174
000304  ea002707          AND      r7,r0,r7,LSL #8       ;174
                  |L1.776|
000308  4836              LDR      r0,|L1.996|
00030a  8880              LDRH     r0,[r0,#4]            ;176  ; lcddev
00030c  f2493125          MOV      r1,#0x9325            ;176
000310  4288              CMP      r0,r1                 ;176
000312  d016              BEQ      |L1.834|
000314  4833              LDR      r0,|L1.996|
000316  8880              LDRH     r0,[r0,#4]            ;176  ; lcddev
000318  f2445135          MOV      r1,#0x4535            ;176
00031c  4288              CMP      r0,r1                 ;176
00031e  d010              BEQ      |L1.834|
000320  4830              LDR      r0,|L1.996|
000322  8880              LDRH     r0,[r0,#4]            ;176  ; lcddev
000324  1f09              SUBS     r1,r1,#4              ;176
000326  4288              CMP      r0,r1                 ;176
000328  d00b              BEQ      |L1.834|
00032a  482e              LDR      r0,|L1.996|
00032c  8880              LDRH     r0,[r0,#4]            ;176  ; lcddev
00032e  f24b5105          MOV      r1,#0xb505            ;176
000332  4288              CMP      r0,r1                 ;176
000334  d005              BEQ      |L1.834|
000336  482b              LDR      r0,|L1.996|
000338  8880              LDRH     r0,[r0,#4]            ;176  ; lcddev
00033a  f24c5105          MOV      r1,#0xc505            ;176
00033e  4288              CMP      r0,r1                 ;176
000340  d101              BNE      |L1.838|
                  |L1.834|
000342  4620              MOV      r0,r4                 ;176
000344  e779              B        |L1.570|
                  |L1.838|
000346  4827              LDR      r0,|L1.996|
000348  8880              LDRH     r0,[r0,#4]            ;177  ; lcddev
00034a  f2493141          MOV      r1,#0x9341            ;177
00034e  4288              CMP      r0,r1                 ;177
000350  d00b              BEQ      |L1.874|
000352  4824              LDR      r0,|L1.996|
000354  8880              LDRH     r0,[r0,#4]            ;177  ; lcddev
000356  f2453110          MOV      r1,#0x5310            ;177
00035a  4288              CMP      r0,r1                 ;177
00035c  d005              BEQ      |L1.874|
00035e  4821              LDR      r0,|L1.996|
000360  8880              LDRH     r0,[r0,#4]            ;177  ; lcddev
000362  f2455110          MOV      r1,#0x5510            ;177
000366  4288              CMP      r0,r1                 ;177
000368  d107              BNE      |L1.890|
                  |L1.874|
00036a  12e0              ASRS     r0,r4,#11             ;177
00036c  02c0              LSLS     r0,r0,#11             ;177
00036e  12b9              ASRS     r1,r7,#10             ;177
000370  ea401041          ORR      r0,r0,r1,LSL #5       ;177
000374  ea4020e8          ORR      r0,r0,r8,ASR #11      ;177
000378  e75f              B        |L1.570|
                  |L1.890|
00037a  4620              MOV      r0,r4                 ;178
00037c  f7fffffe          BL       LCD_BGR2RGB
000380  e75b              B        |L1.570|
;;;180    //LCD开启显示
                          ENDP

                  LCD_DisplayOn PROC
;;;181    void LCD_DisplayOn(void)
000382  b500              PUSH     {lr}
;;;182    {					   
;;;183    	if(lcddev.id==0X9341||lcddev.id==0X6804||lcddev.id==0X5310||lcddev.id==0X1963)LCD_WR_REG(0X29);	//开启显示
000384  4817              LDR      r0,|L1.996|
000386  8880              LDRH     r0,[r0,#4]  ; lcddev
000388  f2493141          MOV      r1,#0x9341
00038c  4288              CMP      r0,r1
00038e  d011              BEQ      |L1.948|
000390  4814              LDR      r0,|L1.996|
000392  8880              LDRH     r0,[r0,#4]  ; lcddev
000394  f6460104          MOV      r1,#0x6804
000398  4288              CMP      r0,r1
00039a  d00b              BEQ      |L1.948|
00039c  4811              LDR      r0,|L1.996|
00039e  8880              LDRH     r0,[r0,#4]  ; lcddev
0003a0  f2453110          MOV      r1,#0x5310
0003a4  4288              CMP      r0,r1
0003a6  d005              BEQ      |L1.948|
0003a8  480e              LDR      r0,|L1.996|
0003aa  8880              LDRH     r0,[r0,#4]  ; lcddev
0003ac  f6411163          MOV      r1,#0x1963
0003b0  4288              CMP      r0,r1
0003b2  d103              BNE      |L1.956|
                  |L1.948|
0003b4  2029              MOVS     r0,#0x29
0003b6  f7fffffe          BL       LCD_WR_REG
0003ba  e00f              B        |L1.988|
                  |L1.956|
;;;184    	else if(lcddev.id==0X5510)LCD_WR_REG(0X2900);	//开启显示
0003bc  4809              LDR      r0,|L1.996|
0003be  8880              LDRH     r0,[r0,#4]  ; lcddev
0003c0  f2455110          MOV      r1,#0x5510
0003c4  4288              CMP      r0,r1
0003c6  d104              BNE      |L1.978|
0003c8  f44f5024          MOV      r0,#0x2900
0003cc  f7fffffe          BL       LCD_WR_REG
0003d0  e004              B        |L1.988|
                  |L1.978|
;;;185    	else LCD_WriteReg(0X07,0x0173); 				 	//开启显示
0003d2  f2401173          MOV      r1,#0x173
0003d6  2007              MOVS     r0,#7
0003d8  f7fffffe          BL       LCD_WriteReg
                  |L1.988|
;;;186    }	 
0003dc  bd00              POP      {pc}
0003de  0000              DCW      0x0000
                  |L1.992|
                          DCD      0x6c0007fe
                  |L1.996|
                          DCD      lcddev
                          ENDP

                  LCD_DisplayOff PROC
;;;187    //LCD关闭显示
;;;188    void LCD_DisplayOff(void)
0003e8  b500              PUSH     {lr}
;;;189    {	   
;;;190    	if(lcddev.id==0X9341||lcddev.id==0X6804||lcddev.id==0X5310||lcddev.id==0X1963)LCD_WR_REG(0X28);	//关闭显示
0003ea  48fd              LDR      r0,|L1.2016|
0003ec  8880              LDRH     r0,[r0,#4]  ; lcddev
0003ee  f2493141          MOV      r1,#0x9341
0003f2  4288              CMP      r0,r1
0003f4  d011              BEQ      |L1.1050|
0003f6  48fa              LDR      r0,|L1.2016|
0003f8  8880              LDRH     r0,[r0,#4]  ; lcddev
0003fa  f6460104          MOV      r1,#0x6804
0003fe  4288              CMP      r0,r1
000400  d00b              BEQ      |L1.1050|
000402  48f7              LDR      r0,|L1.2016|
000404  8880              LDRH     r0,[r0,#4]  ; lcddev
000406  f2453110          MOV      r1,#0x5310
00040a  4288              CMP      r0,r1
00040c  d005              BEQ      |L1.1050|
00040e  48f4              LDR      r0,|L1.2016|
000410  8880              LDRH     r0,[r0,#4]  ; lcddev
000412  f6411163          MOV      r1,#0x1963
000416  4288              CMP      r0,r1
000418  d103              BNE      |L1.1058|
                  |L1.1050|
00041a  2028              MOVS     r0,#0x28
00041c  f7fffffe          BL       LCD_WR_REG
000420  e00e              B        |L1.1088|
                  |L1.1058|
;;;191    	else if(lcddev.id==0X5510)LCD_WR_REG(0X2800);	//关闭显示
000422  48ef              LDR      r0,|L1.2016|
000424  8880              LDRH     r0,[r0,#4]  ; lcddev
000426  f2455110          MOV      r1,#0x5510
00042a  4288              CMP      r0,r1
00042c  d104              BNE      |L1.1080|
00042e  f44f5020          MOV      r0,#0x2800
000432  f7fffffe          BL       LCD_WR_REG
000436  e003              B        |L1.1088|
                  |L1.1080|
;;;192    	else LCD_WriteReg(0X07,0x0);//关闭显示 
000438  2100              MOVS     r1,#0
00043a  2007              MOVS     r0,#7
00043c  f7fffffe          BL       LCD_WriteReg
                  |L1.1088|
;;;193    }   
000440  bd00              POP      {pc}
;;;194    //设置光标位置
                          ENDP

                  LCD_Scan_Dir PROC
;;;247    //9320/9325/9328/4531/4535/1505/b505/5408/9341/5310/5510/1963等IC已经实际测试	   	   
;;;248    void LCD_Scan_Dir(u8 dir)
000442  b570              PUSH     {r4-r6,lr}
;;;249    {
000444  4604              MOV      r4,r0
;;;250    	u16 regval=0;
000446  2300              MOVS     r3,#0
;;;251    	u16 dirreg=0;
000448  2600              MOVS     r6,#0
;;;252    	u16 temp;  
;;;253    	if((lcddev.dir==1&&lcddev.id!=0X6804&&lcddev.id!=0X1963)||(lcddev.dir==0&&lcddev.id==0X1963))//横屏时，对6804和1963不改变扫描方向！竖屏时1963改变方向
00044a  48e5              LDR      r0,|L1.2016|
00044c  7980              LDRB     r0,[r0,#6]  ; lcddev
00044e  2801              CMP      r0,#1
000450  d10b              BNE      |L1.1130|
000452  48e3              LDR      r0,|L1.2016|
000454  8880              LDRH     r0,[r0,#4]  ; lcddev
000456  f6460104          MOV      r1,#0x6804
00045a  4288              CMP      r0,r1
00045c  d005              BEQ      |L1.1130|
00045e  48e0              LDR      r0,|L1.2016|
000460  8880              LDRH     r0,[r0,#4]  ; lcddev
000462  f6411163          MOV      r1,#0x1963
000466  4288              CMP      r0,r1
000468  d108              BNE      |L1.1148|
                  |L1.1130|
00046a  48dd              LDR      r0,|L1.2016|
00046c  7980              LDRB     r0,[r0,#6]  ; lcddev
00046e  b9f0              CBNZ     r0,|L1.1198|
000470  48db              LDR      r0,|L1.2016|
000472  8880              LDRH     r0,[r0,#4]  ; lcddev
000474  f6411163          MOV      r1,#0x1963
000478  4288              CMP      r0,r1
00047a  d118              BNE      |L1.1198|
                  |L1.1148|
;;;254    	{			   
;;;255    		switch(dir)//方向转换
00047c  2c08              CMP      r4,#8
00047e  d215              BCS      |L1.1196|
000480  e8dff004          TBB      [pc,r4]
000484  0406080a          DCB      0x04,0x06,0x08,0x0a
000488  0c0e1012          DCB      0x0c,0x0e,0x10,0x12
;;;256    		{
;;;257    			case 0:dir=6;break;
00048c  2406              MOVS     r4,#6
00048e  e00d              B        |L1.1196|
;;;258    			case 1:dir=7;break;
000490  2407              MOVS     r4,#7
000492  e00b              B        |L1.1196|
;;;259    			case 2:dir=4;break;
000494  2404              MOVS     r4,#4
000496  e009              B        |L1.1196|
;;;260    			case 3:dir=5;break;
000498  2405              MOVS     r4,#5
00049a  e007              B        |L1.1196|
;;;261    			case 4:dir=1;break;
00049c  2401              MOVS     r4,#1
00049e  e005              B        |L1.1196|
;;;262    			case 5:dir=0;break;
0004a0  2400              MOVS     r4,#0
0004a2  e003              B        |L1.1196|
;;;263    			case 6:dir=3;break;
0004a4  2403              MOVS     r4,#3
0004a6  e001              B        |L1.1196|
;;;264    			case 7:dir=2;break;	     
0004a8  2402              MOVS     r4,#2
0004aa  bf00              NOP      
                  |L1.1196|
0004ac  bf00              NOP                            ;257
                  |L1.1198|
;;;265    		}
;;;266    	} 
;;;267    	if(lcddev.id==0x9341||lcddev.id==0X6804||lcddev.id==0X5310||lcddev.id==0X5510||lcddev.id==0X1963)//9341/6804/5310/5510/1963,特殊处理
0004ae  48cc              LDR      r0,|L1.2016|
0004b0  8880              LDRH     r0,[r0,#4]  ; lcddev
0004b2  f2493141          MOV      r1,#0x9341
0004b6  4288              CMP      r0,r1
0004b8  d017              BEQ      |L1.1258|
0004ba  48c9              LDR      r0,|L1.2016|
0004bc  8880              LDRH     r0,[r0,#4]  ; lcddev
0004be  f6460104          MOV      r1,#0x6804
0004c2  4288              CMP      r0,r1
0004c4  d011              BEQ      |L1.1258|
0004c6  48c6              LDR      r0,|L1.2016|
0004c8  8880              LDRH     r0,[r0,#4]  ; lcddev
0004ca  f2453110          MOV      r1,#0x5310
0004ce  4288              CMP      r0,r1
0004d0  d00b              BEQ      |L1.1258|
0004d2  48c3              LDR      r0,|L1.2016|
0004d4  8880              LDRH     r0,[r0,#4]  ; lcddev
0004d6  f2455110          MOV      r1,#0x5510
0004da  4288              CMP      r0,r1
0004dc  d005              BEQ      |L1.1258|
0004de  48c0              LDR      r0,|L1.2016|
0004e0  8880              LDRH     r0,[r0,#4]  ; lcddev
0004e2  f6411163          MOV      r1,#0x1963
0004e6  4288              CMP      r0,r1
0004e8  d17e              BNE      |L1.1512|
                  |L1.1258|
;;;268    	{
;;;269    		switch(dir)
0004ea  2c08              CMP      r4,#8
0004ec  d21c              BCS      |L1.1320|
0004ee  e8dff004          TBB      [pc,r4]
0004f2  0406              DCB      0x04,0x06
0004f4  090c0f12          DCB      0x09,0x0c,0x0f,0x12
0004f8  1518              DCB      0x15,0x18
;;;270    		{
;;;271    			case L2R_U2D://从左到右,从上到下
;;;272    				regval|=(0<<7)|(0<<6)|(0<<5); 
0004fa  bf00              NOP      
;;;273    				break;
0004fc  e014              B        |L1.1320|
;;;274    			case L2R_D2U://从左到右,从下到上
;;;275    				regval|=(1<<7)|(0<<6)|(0<<5); 
0004fe  f0430380          ORR      r3,r3,#0x80
;;;276    				break;
000502  e011              B        |L1.1320|
;;;277    			case R2L_U2D://从右到左,从上到下
;;;278    				regval|=(0<<7)|(1<<6)|(0<<5); 
000504  f0430340          ORR      r3,r3,#0x40
;;;279    				break;
000508  e00e              B        |L1.1320|
;;;280    			case R2L_D2U://从右到左,从下到上
;;;281    				regval|=(1<<7)|(1<<6)|(0<<5); 
00050a  f04303c0          ORR      r3,r3,#0xc0
;;;282    				break;	 
00050e  e00b              B        |L1.1320|
;;;283    			case U2D_L2R://从上到下,从左到右
;;;284    				regval|=(0<<7)|(0<<6)|(1<<5); 
000510  f0430320          ORR      r3,r3,#0x20
;;;285    				break;
000514  e008              B        |L1.1320|
;;;286    			case U2D_R2L://从上到下,从右到左
;;;287    				regval|=(0<<7)|(1<<6)|(1<<5); 
000516  f0430360          ORR      r3,r3,#0x60
;;;288    				break;
00051a  e005              B        |L1.1320|
;;;289    			case D2U_L2R://从下到上,从左到右
;;;290    				regval|=(1<<7)|(0<<6)|(1<<5); 
00051c  f04303a0          ORR      r3,r3,#0xa0
;;;291    				break;
000520  e002              B        |L1.1320|
;;;292    			case D2U_R2L://从下到上,从右到左
;;;293    				regval|=(1<<7)|(1<<6)|(1<<5); 
000522  f04303e0          ORR      r3,r3,#0xe0
;;;294    				break;	 
000526  bf00              NOP      
                  |L1.1320|
000528  bf00              NOP                            ;273
;;;295    		}
;;;296    		if(lcddev.id==0X5510)dirreg=0X3600;
00052a  48ad              LDR      r0,|L1.2016|
00052c  8880              LDRH     r0,[r0,#4]  ; lcddev
00052e  f2455110          MOV      r1,#0x5510
000532  4288              CMP      r0,r1
000534  d102              BNE      |L1.1340|
000536  f44f5658          MOV      r6,#0x3600
00053a  e000              B        |L1.1342|
                  |L1.1340|
;;;297    		else dirreg=0X36;
00053c  2636              MOVS     r6,#0x36
                  |L1.1342|
;;;298     		if((lcddev.id!=0X5310)&&(lcddev.id!=0X5510)&&(lcddev.id!=0X1963))regval|=0X08;//5310/5510/1963不需要BGR   
00053e  48a8              LDR      r0,|L1.2016|
000540  8880              LDRH     r0,[r0,#4]  ; lcddev
000542  f2453110          MOV      r1,#0x5310
000546  4288              CMP      r0,r1
000548  d00d              BEQ      |L1.1382|
00054a  48a5              LDR      r0,|L1.2016|
00054c  8880              LDRH     r0,[r0,#4]  ; lcddev
00054e  f2455110          MOV      r1,#0x5510
000552  4288              CMP      r0,r1
000554  d007              BEQ      |L1.1382|
000556  48a2              LDR      r0,|L1.2016|
000558  8880              LDRH     r0,[r0,#4]  ; lcddev
00055a  f6411163          MOV      r1,#0x1963
00055e  4288              CMP      r0,r1
000560  d001              BEQ      |L1.1382|
000562  f0430308          ORR      r3,r3,#8
                  |L1.1382|
;;;299    		if(lcddev.id==0X6804)regval|=0x02;//6804的BIT6和9341的反了	   
000566  489e              LDR      r0,|L1.2016|
000568  8880              LDRH     r0,[r0,#4]  ; lcddev
00056a  f6460104          MOV      r1,#0x6804
00056e  4288              CMP      r0,r1
000570  d101              BNE      |L1.1398|
000572  f0430302          ORR      r3,r3,#2
                  |L1.1398|
;;;300    		LCD_WriteReg(dirreg,regval);
000576  4619              MOV      r1,r3
000578  4630              MOV      r0,r6
00057a  f7fffffe          BL       LCD_WriteReg
;;;301    		if(lcddev.id!=0X1963)//1963不做坐标处理
00057e  4898              LDR      r0,|L1.2016|
000580  8880              LDRH     r0,[r0,#4]  ; lcddev
000582  f6411163          MOV      r1,#0x1963
000586  4288              CMP      r0,r1
000588  d01d              BEQ      |L1.1478|
;;;302    		{
;;;303    			if(regval&0X20)
00058a  f0030020          AND      r0,r3,#0x20
00058e  b168              CBZ      r0,|L1.1452|
;;;304    			{
;;;305    				if(lcddev.width<lcddev.height)//交换X,Y
000590  4893              LDR      r0,|L1.2016|
000592  8800              LDRH     r0,[r0,#0]  ; lcddev
000594  4992              LDR      r1,|L1.2016|
000596  8849              LDRH     r1,[r1,#2]  ; lcddev
000598  4288              CMP      r0,r1
00059a  da14              BGE      |L1.1478|
;;;306    				{
;;;307    					temp=lcddev.width;
00059c  4890              LDR      r0,|L1.2016|
00059e  8805              LDRH     r5,[r0,#0]  ; lcddev
;;;308    					lcddev.width=lcddev.height;
0005a0  8840              LDRH     r0,[r0,#2]  ; lcddev
0005a2  498f              LDR      r1,|L1.2016|
0005a4  8008              STRH     r0,[r1,#0]
;;;309    					lcddev.height=temp;
0005a6  4608              MOV      r0,r1
0005a8  8045              STRH     r5,[r0,#2]
0005aa  e00c              B        |L1.1478|
                  |L1.1452|
;;;310    				}
;;;311    			}else  
;;;312    			{
;;;313    				if(lcddev.width>lcddev.height)//交换X,Y
0005ac  488c              LDR      r0,|L1.2016|
0005ae  8800              LDRH     r0,[r0,#0]  ; lcddev
0005b0  498b              LDR      r1,|L1.2016|
0005b2  8849              LDRH     r1,[r1,#2]  ; lcddev
0005b4  4288              CMP      r0,r1
0005b6  dd06              BLE      |L1.1478|
;;;314    				{
;;;315    					temp=lcddev.width;
0005b8  4889              LDR      r0,|L1.2016|
0005ba  8805              LDRH     r5,[r0,#0]  ; lcddev
;;;316    					lcddev.width=lcddev.height;
0005bc  8840              LDRH     r0,[r0,#2]  ; lcddev
0005be  4988              LDR      r1,|L1.2016|
0005c0  8008              STRH     r0,[r1,#0]
;;;317    					lcddev.height=temp;
0005c2  4608              MOV      r0,r1
0005c4  8045              STRH     r5,[r0,#2]
                  |L1.1478|
;;;318    				}
;;;319    			}  
;;;320    		}
;;;321    		if(lcddev.id==0X5510)
0005c6  4886              LDR      r0,|L1.2016|
0005c8  8880              LDRH     r0,[r0,#4]  ; lcddev
0005ca  f2455110          MOV      r1,#0x5510
0005ce  4288              CMP      r0,r1
0005d0  d154              BNE      |L1.1660|
;;;322    		{
;;;323    			LCD_WR_REG(lcddev.setxcmd);LCD_WR_DATA(0); 
0005d2  4983              LDR      r1,|L1.2016|
0005d4  8948              LDRH     r0,[r1,#0xa]  ; lcddev
0005d6  f7fffffe          BL       LCD_WR_REG
0005da  2000              MOVS     r0,#0
0005dc  f7fffffe          BL       LCD_WR_DATA
;;;324    			LCD_WR_REG(lcddev.setxcmd+1);LCD_WR_DATA(0); 
0005e0  497f              LDR      r1,|L1.2016|
0005e2  8949              LDRH     r1,[r1,#0xa]  ; lcddev
0005e4  1c49              ADDS     r1,r1,#1
0005e6  e000              B        |L1.1514|
                  |L1.1512|
0005e8  e077              B        |L1.1754|
                  |L1.1514|
0005ea  b288              UXTH     r0,r1
0005ec  f7fffffe          BL       LCD_WR_REG
0005f0  2000              MOVS     r0,#0
0005f2  f7fffffe          BL       LCD_WR_DATA
;;;325    			LCD_WR_REG(lcddev.setxcmd+2);LCD_WR_DATA((lcddev.width-1)>>8); 
0005f6  497a              LDR      r1,|L1.2016|
0005f8  8949              LDRH     r1,[r1,#0xa]  ; lcddev
0005fa  1c89              ADDS     r1,r1,#2
0005fc  b288              UXTH     r0,r1
0005fe  f7fffffe          BL       LCD_WR_REG
000602  4977              LDR      r1,|L1.2016|
000604  8809              LDRH     r1,[r1,#0]  ; lcddev
000606  1e49              SUBS     r1,r1,#1
000608  f3c1200f          UBFX     r0,r1,#8,#16
00060c  f7fffffe          BL       LCD_WR_DATA
;;;326    			LCD_WR_REG(lcddev.setxcmd+3);LCD_WR_DATA((lcddev.width-1)&0XFF); 
000610  4973              LDR      r1,|L1.2016|
000612  8949              LDRH     r1,[r1,#0xa]  ; lcddev
000614  1cc9              ADDS     r1,r1,#3
000616  b288              UXTH     r0,r1
000618  f7fffffe          BL       LCD_WR_REG
00061c  4970              LDR      r1,|L1.2016|
00061e  7809              LDRB     r1,[r1,#0]  ; lcddev
000620  1e49              SUBS     r1,r1,#1
000622  b2c8              UXTB     r0,r1
000624  f7fffffe          BL       LCD_WR_DATA
;;;327    			LCD_WR_REG(lcddev.setycmd);LCD_WR_DATA(0); 
000628  496d              LDR      r1,|L1.2016|
00062a  8988              LDRH     r0,[r1,#0xc]  ; lcddev
00062c  f7fffffe          BL       LCD_WR_REG
000630  2000              MOVS     r0,#0
000632  f7fffffe          BL       LCD_WR_DATA
;;;328    			LCD_WR_REG(lcddev.setycmd+1);LCD_WR_DATA(0); 
000636  496a              LDR      r1,|L1.2016|
000638  8989              LDRH     r1,[r1,#0xc]  ; lcddev
00063a  1c49              ADDS     r1,r1,#1
00063c  b288              UXTH     r0,r1
00063e  f7fffffe          BL       LCD_WR_REG
000642  2000              MOVS     r0,#0
000644  f7fffffe          BL       LCD_WR_DATA
;;;329    			LCD_WR_REG(lcddev.setycmd+2);LCD_WR_DATA((lcddev.height-1)>>8); 
000648  4965              LDR      r1,|L1.2016|
00064a  8989              LDRH     r1,[r1,#0xc]  ; lcddev
00064c  1c89              ADDS     r1,r1,#2
00064e  b288              UXTH     r0,r1
000650  f7fffffe          BL       LCD_WR_REG
000654  4962              LDR      r1,|L1.2016|
000656  8849              LDRH     r1,[r1,#2]  ; lcddev
000658  1e49              SUBS     r1,r1,#1
00065a  f3c1200f          UBFX     r0,r1,#8,#16
00065e  f7fffffe          BL       LCD_WR_DATA
;;;330    			LCD_WR_REG(lcddev.setycmd+3);LCD_WR_DATA((lcddev.height-1)&0XFF);
000662  495f              LDR      r1,|L1.2016|
000664  8989              LDRH     r1,[r1,#0xc]  ; lcddev
000666  1cc9              ADDS     r1,r1,#3
000668  b288              UXTH     r0,r1
00066a  f7fffffe          BL       LCD_WR_REG
00066e  495c              LDR      r1,|L1.2016|
000670  7889              LDRB     r1,[r1,#2]  ; lcddev
000672  1e49              SUBS     r1,r1,#1
000674  b2c8              UXTB     r0,r1
000676  f7fffffe          BL       LCD_WR_DATA
00067a  e055              B        |L1.1832|
                  |L1.1660|
;;;331    		}else
;;;332    		{
;;;333    			LCD_WR_REG(lcddev.setxcmd); 
00067c  4958              LDR      r1,|L1.2016|
00067e  8948              LDRH     r0,[r1,#0xa]  ; lcddev
000680  f7fffffe          BL       LCD_WR_REG
;;;334    			LCD_WR_DATA(0);LCD_WR_DATA(0);
000684  2000              MOVS     r0,#0
000686  f7fffffe          BL       LCD_WR_DATA
00068a  2000              MOVS     r0,#0
00068c  f7fffffe          BL       LCD_WR_DATA
;;;335    			LCD_WR_DATA((lcddev.width-1)>>8);LCD_WR_DATA((lcddev.width-1)&0XFF);
000690  4953              LDR      r1,|L1.2016|
000692  8809              LDRH     r1,[r1,#0]  ; lcddev
000694  1e49              SUBS     r1,r1,#1
000696  f3c1200f          UBFX     r0,r1,#8,#16
00069a  f7fffffe          BL       LCD_WR_DATA
00069e  4950              LDR      r1,|L1.2016|
0006a0  7809              LDRB     r1,[r1,#0]  ; lcddev
0006a2  1e49              SUBS     r1,r1,#1
0006a4  b2c8              UXTB     r0,r1
0006a6  f7fffffe          BL       LCD_WR_DATA
;;;336    			LCD_WR_REG(lcddev.setycmd); 
0006aa  494d              LDR      r1,|L1.2016|
0006ac  8988              LDRH     r0,[r1,#0xc]  ; lcddev
0006ae  f7fffffe          BL       LCD_WR_REG
;;;337    			LCD_WR_DATA(0);LCD_WR_DATA(0);
0006b2  2000              MOVS     r0,#0
0006b4  f7fffffe          BL       LCD_WR_DATA
0006b8  2000              MOVS     r0,#0
0006ba  f7fffffe          BL       LCD_WR_DATA
;;;338    			LCD_WR_DATA((lcddev.height-1)>>8);LCD_WR_DATA((lcddev.height-1)&0XFF);  
0006be  4948              LDR      r1,|L1.2016|
0006c0  8849              LDRH     r1,[r1,#2]  ; lcddev
0006c2  1e49              SUBS     r1,r1,#1
0006c4  f3c1200f          UBFX     r0,r1,#8,#16
0006c8  f7fffffe          BL       LCD_WR_DATA
0006cc  4944              LDR      r1,|L1.2016|
0006ce  7889              LDRB     r1,[r1,#2]  ; lcddev
0006d0  1e49              SUBS     r1,r1,#1
0006d2  b2c8              UXTB     r0,r1
0006d4  f7fffffe          BL       LCD_WR_DATA
0006d8  e026              B        |L1.1832|
                  |L1.1754|
;;;339    		}
;;;340      	}else 
;;;341    	{
;;;342    		switch(dir)
0006da  2c08              CMP      r4,#8
0006dc  d21c              BCS      |L1.1816|
0006de  e8dff004          TBB      [pc,r4]
0006e2  0407              DCB      0x04,0x07
0006e4  0a0d0f12          DCB      0x0a,0x0d,0x0f,0x12
0006e8  1518              DCB      0x15,0x18
;;;343    		{
;;;344    			case L2R_U2D://从左到右,从上到下
;;;345    				regval|=(1<<5)|(1<<4)|(0<<3); 
0006ea  f0430330          ORR      r3,r3,#0x30
;;;346    				break;
0006ee  e013              B        |L1.1816|
;;;347    			case L2R_D2U://从左到右,从下到上
;;;348    				regval|=(0<<5)|(1<<4)|(0<<3); 
0006f0  f0430310          ORR      r3,r3,#0x10
;;;349    				break;
0006f4  e010              B        |L1.1816|
;;;350    			case R2L_U2D://从右到左,从上到下
;;;351    				regval|=(1<<5)|(0<<4)|(0<<3);
0006f6  f0430320          ORR      r3,r3,#0x20
;;;352    				break;
0006fa  e00d              B        |L1.1816|
;;;353    			case R2L_D2U://从右到左,从下到上
;;;354    				regval|=(0<<5)|(0<<4)|(0<<3); 
0006fc  bf00              NOP      
;;;355    				break;	 
0006fe  e00b              B        |L1.1816|
;;;356    			case U2D_L2R://从上到下,从左到右
;;;357    				regval|=(1<<5)|(1<<4)|(1<<3); 
000700  f0430338          ORR      r3,r3,#0x38
;;;358    				break;
000704  e008              B        |L1.1816|
;;;359    			case U2D_R2L://从上到下,从右到左
;;;360    				regval|=(1<<5)|(0<<4)|(1<<3); 
000706  f0430328          ORR      r3,r3,#0x28
;;;361    				break;
00070a  e005              B        |L1.1816|
;;;362    			case D2U_L2R://从下到上,从左到右
;;;363    				regval|=(0<<5)|(1<<4)|(1<<3); 
00070c  f0430318          ORR      r3,r3,#0x18
;;;364    				break;
000710  e002              B        |L1.1816|
;;;365    			case D2U_R2L://从下到上,从右到左
;;;366    				regval|=(0<<5)|(0<<4)|(1<<3); 
000712  f0430308          ORR      r3,r3,#8
;;;367    				break;	 
000716  bf00              NOP      
                  |L1.1816|
000718  bf00              NOP                            ;346
;;;368    		} 
;;;369    		dirreg=0X03;
00071a  2603              MOVS     r6,#3
;;;370    		regval|=1<<12; 
00071c  f4435380          ORR      r3,r3,#0x1000
;;;371    		LCD_WriteReg(dirreg,regval);
000720  4619              MOV      r1,r3
000722  4630              MOV      r0,r6
000724  f7fffffe          BL       LCD_WriteReg
                  |L1.1832|
;;;372    	}
;;;373    }     
000728  bd70              POP      {r4-r6,pc}
;;;374    //画点
                          ENDP

                  LCD_DrawPoint PROC
;;;376    //POINT_COLOR:此点的颜色
;;;377    void LCD_DrawPoint(u16 x,u16 y)
00072a  b530              PUSH     {r4,r5,lr}
;;;378    {
00072c  4604              MOV      r4,r0
00072e  460d              MOV      r5,r1
;;;379    	LCD_SetCursor(x,y);		//设置光标位置 
000730  4629              MOV      r1,r5
000732  4620              MOV      r0,r4
000734  f7fffffe          BL       LCD_SetCursor
;;;380    	LCD_WriteRAM_Prepare();	//开始写入GRAM
000738  f7fffffe          BL       LCD_WriteRAM_Prepare
;;;381    	LCD->LCD_RAM=POINT_COLOR; 
00073c  4829              LDR      r0,|L1.2020|
00073e  8800              LDRH     r0,[r0,#0]  ; POINT_COLOR
000740  4929              LDR      r1,|L1.2024|
000742  8008              STRH     r0,[r1,#0]
;;;382    }
000744  bd30              POP      {r4,r5,pc}
;;;383    //快速画点
                          ENDP

                  LCD_Fast_DrawPoint PROC
;;;385    //color:颜色
;;;386    void LCD_Fast_DrawPoint(u16 x,u16 y,u16 color)
000746  b530              PUSH     {r4,r5,lr}
;;;387    {	   
000748  4603              MOV      r3,r0
00074a  460c              MOV      r4,r1
00074c  4615              MOV      r5,r2
;;;388    	if(lcddev.id==0X9341||lcddev.id==0X5310)
00074e  4824              LDR      r0,|L1.2016|
000750  8880              LDRH     r0,[r0,#4]  ; lcddev
000752  f2493141          MOV      r1,#0x9341
000756  4288              CMP      r0,r1
000758  d005              BEQ      |L1.1894|
00075a  4821              LDR      r0,|L1.2016|
00075c  8880              LDRH     r0,[r0,#4]  ; lcddev
00075e  f2453110          MOV      r1,#0x5310
000762  4288              CMP      r0,r1
000764  d114              BNE      |L1.1936|
                  |L1.1894|
;;;389    	{
;;;390    		LCD_WR_REG(lcddev.setxcmd); 
000766  491e              LDR      r1,|L1.2016|
000768  8948              LDRH     r0,[r1,#0xa]  ; lcddev
00076a  f7fffffe          BL       LCD_WR_REG
;;;391    		LCD_WR_DATA(x>>8);LCD_WR_DATA(x&0XFF);  			 
00076e  1218              ASRS     r0,r3,#8
000770  f7fffffe          BL       LCD_WR_DATA
000774  b2d8              UXTB     r0,r3
000776  f7fffffe          BL       LCD_WR_DATA
;;;392    		LCD_WR_REG(lcddev.setycmd); 
00077a  4919              LDR      r1,|L1.2016|
00077c  8988              LDRH     r0,[r1,#0xc]  ; lcddev
00077e  f7fffffe          BL       LCD_WR_REG
;;;393    		LCD_WR_DATA(y>>8);LCD_WR_DATA(y&0XFF); 		 	 
000782  1220              ASRS     r0,r4,#8
000784  f7fffffe          BL       LCD_WR_DATA
000788  b2e0              UXTB     r0,r4
00078a  f7fffffe          BL       LCD_WR_DATA
00078e  e093              B        |L1.2232|
                  |L1.1936|
;;;394    	}else if(lcddev.id==0X5510)
000790  4813              LDR      r0,|L1.2016|
000792  8880              LDRH     r0,[r0,#4]  ; lcddev
000794  f2455110          MOV      r1,#0x5510
000798  4288              CMP      r0,r1
00079a  d127              BNE      |L1.2028|
;;;395    	{
;;;396    		LCD_WR_REG(lcddev.setxcmd);LCD_WR_DATA(x>>8);  
00079c  4910              LDR      r1,|L1.2016|
00079e  8948              LDRH     r0,[r1,#0xa]  ; lcddev
0007a0  f7fffffe          BL       LCD_WR_REG
0007a4  1218              ASRS     r0,r3,#8
0007a6  f7fffffe          BL       LCD_WR_DATA
;;;397    		LCD_WR_REG(lcddev.setxcmd+1);LCD_WR_DATA(x&0XFF);	  
0007aa  490d              LDR      r1,|L1.2016|
0007ac  8949              LDRH     r1,[r1,#0xa]  ; lcddev
0007ae  1c49              ADDS     r1,r1,#1
0007b0  b288              UXTH     r0,r1
0007b2  f7fffffe          BL       LCD_WR_REG
0007b6  b2d8              UXTB     r0,r3
0007b8  f7fffffe          BL       LCD_WR_DATA
;;;398    		LCD_WR_REG(lcddev.setycmd);LCD_WR_DATA(y>>8);  
0007bc  4908              LDR      r1,|L1.2016|
0007be  8988              LDRH     r0,[r1,#0xc]  ; lcddev
0007c0  f7fffffe          BL       LCD_WR_REG
0007c4  1220              ASRS     r0,r4,#8
0007c6  f7fffffe          BL       LCD_WR_DATA
;;;399    		LCD_WR_REG(lcddev.setycmd+1);LCD_WR_DATA(y&0XFF); 
0007ca  4905              LDR      r1,|L1.2016|
0007cc  8989              LDRH     r1,[r1,#0xc]  ; lcddev
0007ce  1c49              ADDS     r1,r1,#1
0007d0  b288              UXTH     r0,r1
0007d2  f7fffffe          BL       LCD_WR_REG
0007d6  b2e0              UXTB     r0,r4
0007d8  f7fffffe          BL       LCD_WR_DATA
0007dc  e06c              B        |L1.2232|
0007de  0000              DCW      0x0000
                  |L1.2016|
                          DCD      lcddev
                  |L1.2020|
                          DCD      POINT_COLOR
                  |L1.2024|
                          DCD      0x6c000800
                  |L1.2028|
;;;400    	}else if(lcddev.id==0X1963)
0007ec  48fc              LDR      r0,|L1.3040|
0007ee  8880              LDRH     r0,[r0,#4]  ; lcddev
0007f0  f6411163          MOV      r1,#0x1963
0007f4  4288              CMP      r0,r1
0007f6  d128              BNE      |L1.2122|
;;;401    	{
;;;402    		if(lcddev.dir==0)x=lcddev.width-1-x;
0007f8  48f9              LDR      r0,|L1.3040|
0007fa  7980              LDRB     r0,[r0,#6]  ; lcddev
0007fc  b920              CBNZ     r0,|L1.2056|
0007fe  48f8              LDR      r0,|L1.3040|
000800  8800              LDRH     r0,[r0,#0]  ; lcddev
000802  1e40              SUBS     r0,r0,#1
000804  1ac0              SUBS     r0,r0,r3
000806  b283              UXTH     r3,r0
                  |L1.2056|
;;;403    		LCD_WR_REG(lcddev.setxcmd); 
000808  49f5              LDR      r1,|L1.3040|
00080a  8948              LDRH     r0,[r1,#0xa]  ; lcddev
00080c  f7fffffe          BL       LCD_WR_REG
;;;404    		LCD_WR_DATA(x>>8);LCD_WR_DATA(x&0XFF); 		
000810  1218              ASRS     r0,r3,#8
000812  f7fffffe          BL       LCD_WR_DATA
000816  b2d8              UXTB     r0,r3
000818  f7fffffe          BL       LCD_WR_DATA
;;;405    		LCD_WR_DATA(x>>8);LCD_WR_DATA(x&0XFF); 		
00081c  1218              ASRS     r0,r3,#8
00081e  f7fffffe          BL       LCD_WR_DATA
000822  b2d8              UXTB     r0,r3
000824  f7fffffe          BL       LCD_WR_DATA
;;;406    		LCD_WR_REG(lcddev.setycmd); 
000828  49ed              LDR      r1,|L1.3040|
00082a  8988              LDRH     r0,[r1,#0xc]  ; lcddev
00082c  f7fffffe          BL       LCD_WR_REG
;;;407    		LCD_WR_DATA(y>>8);LCD_WR_DATA(y&0XFF); 		
000830  1220              ASRS     r0,r4,#8
000832  f7fffffe          BL       LCD_WR_DATA
000836  b2e0              UXTB     r0,r4
000838  f7fffffe          BL       LCD_WR_DATA
;;;408    		LCD_WR_DATA(y>>8);LCD_WR_DATA(y&0XFF); 		
00083c  1220              ASRS     r0,r4,#8
00083e  f7fffffe          BL       LCD_WR_DATA
000842  b2e0              UXTB     r0,r4
000844  f7fffffe          BL       LCD_WR_DATA
000848  e036              B        |L1.2232|
                  |L1.2122|
;;;409    	}else if(lcddev.id==0X6804)
00084a  48e5              LDR      r0,|L1.3040|
00084c  8880              LDRH     r0,[r0,#4]  ; lcddev
00084e  f6460104          MOV      r1,#0x6804
000852  4288              CMP      r0,r1
000854  d11d              BNE      |L1.2194|
;;;410    	{		    
;;;411    		if(lcddev.dir==1)x=lcddev.width-1-x;//横屏时处理
000856  48e2              LDR      r0,|L1.3040|
000858  7980              LDRB     r0,[r0,#6]  ; lcddev
00085a  2801              CMP      r0,#1
00085c  d104              BNE      |L1.2152|
00085e  48e0              LDR      r0,|L1.3040|
000860  8800              LDRH     r0,[r0,#0]  ; lcddev
000862  1e40              SUBS     r0,r0,#1
000864  1ac0              SUBS     r0,r0,r3
000866  b283              UXTH     r3,r0
                  |L1.2152|
;;;412    		LCD_WR_REG(lcddev.setxcmd); 
000868  49dd              LDR      r1,|L1.3040|
00086a  8948              LDRH     r0,[r1,#0xa]  ; lcddev
00086c  f7fffffe          BL       LCD_WR_REG
;;;413    		LCD_WR_DATA(x>>8);LCD_WR_DATA(x&0XFF);			 
000870  1218              ASRS     r0,r3,#8
000872  f7fffffe          BL       LCD_WR_DATA
000876  b2d8              UXTB     r0,r3
000878  f7fffffe          BL       LCD_WR_DATA
;;;414    		LCD_WR_REG(lcddev.setycmd); 
00087c  49d8              LDR      r1,|L1.3040|
00087e  8988              LDRH     r0,[r1,#0xc]  ; lcddev
000880  f7fffffe          BL       LCD_WR_REG
;;;415    		LCD_WR_DATA(y>>8);LCD_WR_DATA(y&0XFF); 		
000884  1220              ASRS     r0,r4,#8
000886  f7fffffe          BL       LCD_WR_DATA
00088a  b2e0              UXTB     r0,r4
00088c  f7fffffe          BL       LCD_WR_DATA
000890  e012              B        |L1.2232|
                  |L1.2194|
;;;416    	}else
;;;417    	{
;;;418     		if(lcddev.dir==1)x=lcddev.width-1-x;//横屏其实就是调转x,y坐标
000892  48d3              LDR      r0,|L1.3040|
000894  7980              LDRB     r0,[r0,#6]  ; lcddev
000896  2801              CMP      r0,#1
000898  d104              BNE      |L1.2212|
00089a  48d1              LDR      r0,|L1.3040|
00089c  8800              LDRH     r0,[r0,#0]  ; lcddev
00089e  1e40              SUBS     r0,r0,#1
0008a0  1ac0              SUBS     r0,r0,r3
0008a2  b283              UXTH     r3,r0
                  |L1.2212|
;;;419    		LCD_WriteReg(lcddev.setxcmd,x);
0008a4  49ce              LDR      r1,|L1.3040|
0008a6  8948              LDRH     r0,[r1,#0xa]  ; lcddev
0008a8  4619              MOV      r1,r3
0008aa  f7fffffe          BL       LCD_WriteReg
;;;420    		LCD_WriteReg(lcddev.setycmd,y);
0008ae  49cc              LDR      r1,|L1.3040|
0008b0  8988              LDRH     r0,[r1,#0xc]  ; lcddev
0008b2  4621              MOV      r1,r4
0008b4  f7fffffe          BL       LCD_WriteReg
                  |L1.2232|
;;;421    	}			 
;;;422    	LCD->LCD_REG=lcddev.wramcmd; 
0008b8  48c9              LDR      r0,|L1.3040|
0008ba  8900              LDRH     r0,[r0,#8]  ; lcddev
0008bc  49c9              LDR      r1,|L1.3044|
0008be  8008              STRH     r0,[r1,#0]
;;;423    	LCD->LCD_RAM=color; 
0008c0  1c88              ADDS     r0,r1,#2
0008c2  8005              STRH     r5,[r0,#0]
;;;424    }	 
0008c4  bd30              POP      {r4,r5,pc}
;;;425    //SSD1963 背光设置
                          ENDP

                  LCD_SSD_BackLightSet PROC
;;;426    //pwm:背光等级,0~100.越大越亮.
;;;427    void LCD_SSD_BackLightSet(u8 pwm)
0008c6  e92d47f0          PUSH     {r4-r10,lr}
;;;428    {	
0008ca  4604              MOV      r4,r0
;;;429    	LCD_WR_REG(0xBE);	//配置PWM输出
0008cc  20be              MOVS     r0,#0xbe
0008ce  f7fffffe          BL       LCD_WR_REG
;;;430    	LCD_WR_DATA(0x05);	//1设置PWM频率
0008d2  2005              MOVS     r0,#5
0008d4  f7fffffe          BL       LCD_WR_DATA
;;;431    	LCD_WR_DATA(pwm*2.55);//2设置PWM占空比
0008d8  4620              MOV      r0,r4
0008da  f7fffffe          BL       __aeabi_ui2d
0008de  4607              MOV      r7,r0
0008e0  f04f3266          MOV      r2,#0x66666666
0008e4  4bc0              LDR      r3,|L1.3048|
0008e6  f7fffffe          BL       __aeabi_dmul
0008ea  4605              MOV      r5,r0
0008ec  f7fffffe          BL       __aeabi_d2uiz
0008f0  fa1ff980          UXTH     r9,r0
0008f4  4648              MOV      r0,r9
0008f6  f7fffffe          BL       LCD_WR_DATA
;;;432    	LCD_WR_DATA(0x01);	//3设置C
0008fa  2001              MOVS     r0,#1
0008fc  f7fffffe          BL       LCD_WR_DATA
;;;433    	LCD_WR_DATA(0xFF);	//4设置D
000900  20ff              MOVS     r0,#0xff
000902  f7fffffe          BL       LCD_WR_DATA
;;;434    	LCD_WR_DATA(0x00);	//5设置E
000906  2000              MOVS     r0,#0
000908  f7fffffe          BL       LCD_WR_DATA
;;;435    	LCD_WR_DATA(0x00);	//6设置F
00090c  2000              MOVS     r0,#0
00090e  f7fffffe          BL       LCD_WR_DATA
;;;436    }
000912  e8bd87f0          POP      {r4-r10,pc}
;;;437    
                          ENDP

                  LCD_Display_Dir PROC
;;;439    //dir:0,竖屏；1,横屏
;;;440    void LCD_Display_Dir(u8 dir)
000916  b510              PUSH     {r4,lr}
;;;441    {
000918  4604              MOV      r4,r0
;;;442    	if(dir==0)			//竖屏
00091a  2c00              CMP      r4,#0
00091c  d166              BNE      |L1.2540|
;;;443    	{
;;;444    		lcddev.dir=0;	//竖屏
00091e  49b0              LDR      r1,|L1.3040|
000920  7188              STRB     r0,[r1,#6]
;;;445    		lcddev.width=240;
000922  20f0              MOVS     r0,#0xf0
000924  8008              STRH     r0,[r1,#0]
;;;446    		lcddev.height=320;
000926  f44f70a0          MOV      r0,#0x140
00092a  8048              STRH     r0,[r1,#2]
;;;447    		if(lcddev.id==0X9341||lcddev.id==0X6804||lcddev.id==0X5310)
00092c  4608              MOV      r0,r1
00092e  8880              LDRH     r0,[r0,#4]  ; lcddev
000930  f2493141          MOV      r1,#0x9341
000934  4288              CMP      r0,r1
000936  d00b              BEQ      |L1.2384|
000938  48a9              LDR      r0,|L1.3040|
00093a  8880              LDRH     r0,[r0,#4]  ; lcddev
00093c  f6460104          MOV      r1,#0x6804
000940  4288              CMP      r0,r1
000942  d005              BEQ      |L1.2384|
000944  48a6              LDR      r0,|L1.3040|
000946  8880              LDRH     r0,[r0,#4]  ; lcddev
000948  f2453110          MOV      r1,#0x5310
00094c  4288              CMP      r0,r1
00094e  d11a              BNE      |L1.2438|
                  |L1.2384|
;;;448    		{
;;;449    			lcddev.wramcmd=0X2C;
000950  202c              MOVS     r0,#0x2c
000952  49a3              LDR      r1,|L1.3040|
000954  8108              STRH     r0,[r1,#8]
;;;450    	 		lcddev.setxcmd=0X2A;
000956  202a              MOVS     r0,#0x2a
000958  8148              STRH     r0,[r1,#0xa]
;;;451    			lcddev.setycmd=0X2B;  	 
00095a  202b              MOVS     r0,#0x2b
00095c  8188              STRH     r0,[r1,#0xc]
;;;452    			if(lcddev.id==0X6804||lcddev.id==0X5310)
00095e  4608              MOV      r0,r1
000960  8880              LDRH     r0,[r0,#4]  ; lcddev
000962  f6460104          MOV      r1,#0x6804
000966  4288              CMP      r0,r1
000968  d005              BEQ      |L1.2422|
00096a  489d              LDR      r0,|L1.3040|
00096c  8880              LDRH     r0,[r0,#4]  ; lcddev
00096e  f2453110          MOV      r1,#0x5310
000972  4288              CMP      r0,r1
000974  d106              BNE      |L1.2436|
                  |L1.2422|
;;;453    			{
;;;454    				lcddev.width=320;
000976  f44f70a0          MOV      r0,#0x140
00097a  4999              LDR      r1,|L1.3040|
00097c  8008              STRH     r0,[r1,#0]
;;;455    				lcddev.height=480;
00097e  f44f70f0          MOV      r0,#0x1e0
000982  8048              STRH     r0,[r1,#2]
                  |L1.2436|
000984  e0a1              B        |L1.2762|
                  |L1.2438|
;;;456    			}
;;;457    		}else if(lcddev.id==0x5510)
000986  4896              LDR      r0,|L1.3040|
000988  8880              LDRH     r0,[r0,#4]  ; lcddev
00098a  f2455110          MOV      r1,#0x5510
00098e  4288              CMP      r0,r1
000990  d110              BNE      |L1.2484|
;;;458    		{
;;;459    			lcddev.wramcmd=0X2C00;
000992  f44f5030          MOV      r0,#0x2c00
000996  4992              LDR      r1,|L1.3040|
000998  8108              STRH     r0,[r1,#8]
;;;460    	 		lcddev.setxcmd=0X2A00;
00099a  f44f5028          MOV      r0,#0x2a00
00099e  8148              STRH     r0,[r1,#0xa]
;;;461    			lcddev.setycmd=0X2B00; 
0009a0  f44f502c          MOV      r0,#0x2b00
0009a4  8188              STRH     r0,[r1,#0xc]
;;;462    			lcddev.width=480;
0009a6  f44f70f0          MOV      r0,#0x1e0
0009aa  8008              STRH     r0,[r1,#0]
;;;463    			lcddev.height=800;
0009ac  f44f7048          MOV      r0,#0x320
0009b0  8048              STRH     r0,[r1,#2]
0009b2  e08a              B        |L1.2762|
                  |L1.2484|
;;;464    		}else if(lcddev.id==0X1963)
0009b4  488a              LDR      r0,|L1.3040|
0009b6  8880              LDRH     r0,[r0,#4]  ; lcddev
0009b8  f6411163          MOV      r1,#0x1963
0009bc  4288              CMP      r0,r1
0009be  d10d              BNE      |L1.2524|
;;;465    		{
;;;466    			lcddev.wramcmd=0X2C;	//设置写入GRAM的指令 
0009c0  202c              MOVS     r0,#0x2c
0009c2  4987              LDR      r1,|L1.3040|
0009c4  8108              STRH     r0,[r1,#8]
;;;467    			lcddev.setxcmd=0X2B;	//设置写X坐标指令
0009c6  202b              MOVS     r0,#0x2b
0009c8  8148              STRH     r0,[r1,#0xa]
;;;468    			lcddev.setycmd=0X2A;	//设置写Y坐标指令
0009ca  202a              MOVS     r0,#0x2a
0009cc  8188              STRH     r0,[r1,#0xc]
;;;469    			lcddev.width=480;		//设置宽度480
0009ce  f44f70f0          MOV      r0,#0x1e0
0009d2  8008              STRH     r0,[r1,#0]
;;;470    			lcddev.height=800;		//设置高度800  
0009d4  f44f7048          MOV      r0,#0x320
0009d8  8048              STRH     r0,[r1,#2]
0009da  e076              B        |L1.2762|
                  |L1.2524|
;;;471    		}else
;;;472    		{
;;;473    			lcddev.wramcmd=0X22;
0009dc  2022              MOVS     r0,#0x22
0009de  4980              LDR      r1,|L1.3040|
0009e0  8108              STRH     r0,[r1,#8]
;;;474    	 		lcddev.setxcmd=0X20;
0009e2  2020              MOVS     r0,#0x20
0009e4  8148              STRH     r0,[r1,#0xa]
;;;475    			lcddev.setycmd=0X21;  
0009e6  2021              MOVS     r0,#0x21
0009e8  8188              STRH     r0,[r1,#0xc]
0009ea  e06e              B        |L1.2762|
                  |L1.2540|
;;;476    		}
;;;477    	}else 				//横屏
;;;478    	{	  				
;;;479    		lcddev.dir=1;	//横屏
0009ec  2001              MOVS     r0,#1
0009ee  497c              LDR      r1,|L1.3040|
0009f0  7188              STRB     r0,[r1,#6]
;;;480    		lcddev.width=320;
0009f2  f44f70a0          MOV      r0,#0x140
0009f6  8008              STRH     r0,[r1,#0]
;;;481    		lcddev.height=240;
0009f8  20f0              MOVS     r0,#0xf0
0009fa  8048              STRH     r0,[r1,#2]
;;;482    		if(lcddev.id==0X9341||lcddev.id==0X5310)
0009fc  4608              MOV      r0,r1
0009fe  8880              LDRH     r0,[r0,#4]  ; lcddev
000a00  f2493141          MOV      r1,#0x9341
000a04  4288              CMP      r0,r1
000a06  d005              BEQ      |L1.2580|
000a08  4875              LDR      r0,|L1.3040|
000a0a  8880              LDRH     r0,[r0,#4]  ; lcddev
000a0c  f2453110          MOV      r1,#0x5310
000a10  4288              CMP      r0,r1
000a12  d107              BNE      |L1.2596|
                  |L1.2580|
;;;483    		{
;;;484    			lcddev.wramcmd=0X2C;
000a14  202c              MOVS     r0,#0x2c
000a16  4972              LDR      r1,|L1.3040|
000a18  8108              STRH     r0,[r1,#8]
;;;485    	 		lcddev.setxcmd=0X2A;
000a1a  202a              MOVS     r0,#0x2a
000a1c  8148              STRH     r0,[r1,#0xa]
;;;486    			lcddev.setycmd=0X2B;  	 
000a1e  202b              MOVS     r0,#0x2b
000a20  8188              STRH     r0,[r1,#0xc]
000a22  e03f              B        |L1.2724|
                  |L1.2596|
;;;487    		}else if(lcddev.id==0X6804)	 
000a24  486e              LDR      r0,|L1.3040|
000a26  8880              LDRH     r0,[r0,#4]  ; lcddev
000a28  f6460104          MOV      r1,#0x6804
000a2c  4288              CMP      r0,r1
000a2e  d107              BNE      |L1.2624|
;;;488    		{
;;;489     			lcddev.wramcmd=0X2C;
000a30  202c              MOVS     r0,#0x2c
000a32  496b              LDR      r1,|L1.3040|
000a34  8108              STRH     r0,[r1,#8]
;;;490    	 		lcddev.setxcmd=0X2B;
000a36  202b              MOVS     r0,#0x2b
000a38  8148              STRH     r0,[r1,#0xa]
;;;491    			lcddev.setycmd=0X2A; 
000a3a  202a              MOVS     r0,#0x2a
000a3c  8188              STRH     r0,[r1,#0xc]
000a3e  e031              B        |L1.2724|
                  |L1.2624|
;;;492    		}else if(lcddev.id==0x5510)
000a40  4867              LDR      r0,|L1.3040|
000a42  8880              LDRH     r0,[r0,#4]  ; lcddev
000a44  f2455110          MOV      r1,#0x5510
000a48  4288              CMP      r0,r1
000a4a  d110              BNE      |L1.2670|
;;;493    		{
;;;494    			lcddev.wramcmd=0X2C00;
000a4c  f44f5030          MOV      r0,#0x2c00
000a50  4963              LDR      r1,|L1.3040|
000a52  8108              STRH     r0,[r1,#8]
;;;495    	 		lcddev.setxcmd=0X2A00;
000a54  f44f5028          MOV      r0,#0x2a00
000a58  8148              STRH     r0,[r1,#0xa]
;;;496    			lcddev.setycmd=0X2B00; 
000a5a  f44f502c          MOV      r0,#0x2b00
000a5e  8188              STRH     r0,[r1,#0xc]
;;;497    			lcddev.width=800;
000a60  f44f7048          MOV      r0,#0x320
000a64  8008              STRH     r0,[r1,#0]
;;;498    			lcddev.height=480;
000a66  f44f70f0          MOV      r0,#0x1e0
000a6a  8048              STRH     r0,[r1,#2]
000a6c  e01a              B        |L1.2724|
                  |L1.2670|
;;;499    		}else if(lcddev.id==0X1963)
000a6e  485c              LDR      r0,|L1.3040|
000a70  8880              LDRH     r0,[r0,#4]  ; lcddev
000a72  f6411163          MOV      r1,#0x1963
000a76  4288              CMP      r0,r1
000a78  d10d              BNE      |L1.2710|
;;;500    		{
;;;501    			lcddev.wramcmd=0X2C;	//设置写入GRAM的指令 
000a7a  202c              MOVS     r0,#0x2c
000a7c  4958              LDR      r1,|L1.3040|
000a7e  8108              STRH     r0,[r1,#8]
;;;502    			lcddev.setxcmd=0X2A;	//设置写X坐标指令
000a80  202a              MOVS     r0,#0x2a
000a82  8148              STRH     r0,[r1,#0xa]
;;;503    			lcddev.setycmd=0X2B;	//设置写Y坐标指令
000a84  202b              MOVS     r0,#0x2b
000a86  8188              STRH     r0,[r1,#0xc]
;;;504    			lcddev.width=800;		//设置宽度800
000a88  f44f7048          MOV      r0,#0x320
000a8c  8008              STRH     r0,[r1,#0]
;;;505    			lcddev.height=480;		//设置高度480  
000a8e  f44f70f0          MOV      r0,#0x1e0
000a92  8048              STRH     r0,[r1,#2]
000a94  e006              B        |L1.2724|
                  |L1.2710|
;;;506    		}else
;;;507    		{
;;;508    			lcddev.wramcmd=0X22;
000a96  2022              MOVS     r0,#0x22
000a98  4951              LDR      r1,|L1.3040|
000a9a  8108              STRH     r0,[r1,#8]
;;;509    	 		lcddev.setxcmd=0X21;
000a9c  2021              MOVS     r0,#0x21
000a9e  8148              STRH     r0,[r1,#0xa]
;;;510    			lcddev.setycmd=0X20;  
000aa0  2020              MOVS     r0,#0x20
000aa2  8188              STRH     r0,[r1,#0xc]
                  |L1.2724|
;;;511    		}
;;;512    		if(lcddev.id==0X6804||lcddev.id==0X5310)
000aa4  484e              LDR      r0,|L1.3040|
000aa6  8880              LDRH     r0,[r0,#4]  ; lcddev
000aa8  f6460104          MOV      r1,#0x6804
000aac  4288              CMP      r0,r1
000aae  d005              BEQ      |L1.2748|
000ab0  484b              LDR      r0,|L1.3040|
000ab2  8880              LDRH     r0,[r0,#4]  ; lcddev
000ab4  f2453110          MOV      r1,#0x5310
000ab8  4288              CMP      r0,r1
000aba  d106              BNE      |L1.2762|
                  |L1.2748|
;;;513    		{ 	 
;;;514    			lcddev.width=480;
000abc  f44f70f0          MOV      r0,#0x1e0
000ac0  4947              LDR      r1,|L1.3040|
000ac2  8008              STRH     r0,[r1,#0]
;;;515    			lcddev.height=320; 			
000ac4  f44f70a0          MOV      r0,#0x140
000ac8  8048              STRH     r0,[r1,#2]
                  |L1.2762|
;;;516    		}
;;;517    	} 
;;;518    	LCD_Scan_Dir(DFT_SCAN_DIR);	//默认扫描方向
000aca  2000              MOVS     r0,#0
000acc  f7fffffe          BL       LCD_Scan_Dir
;;;519    }	 
000ad0  bd10              POP      {r4,pc}
;;;520    //设置窗口,并自动设置画点坐标到窗口左上角(sx,sy).
                          ENDP

                  LCD_Set_Window PROC
;;;523    //窗体大小:width*height. 
;;;524    void LCD_Set_Window(u16 sx,u16 sy,u16 width,u16 height)
000ad2  e92d4ff0          PUSH     {r4-r11,lr}
;;;525    {    
000ad6  b086              SUB      sp,sp,#0x18
000ad8  4604              MOV      r4,r0
000ada  460d              MOV      r5,r1
000adc  4690              MOV      r8,r2
000ade  4699              MOV      r9,r3
;;;526    	u8 hsareg,heareg,vsareg,veareg;
;;;527    	u16 hsaval,heaval,vsaval,veaval; 
;;;528    	u16 twidth,theight;
;;;529    	twidth=sx+width-1;
000ae0  eb040008          ADD      r0,r4,r8
000ae4  1e40              SUBS     r0,r0,#1
000ae6  b286              UXTH     r6,r0
;;;530    	theight=sy+height-1;
000ae8  eb050009          ADD      r0,r5,r9
000aec  1e40              SUBS     r0,r0,#1
000aee  b287              UXTH     r7,r0
;;;531    	if(lcddev.id==0X9341||lcddev.id==0X5310||lcddev.id==0X6804||(lcddev.dir==1&&lcddev.id==0X1963))
000af0  483b              LDR      r0,|L1.3040|
000af2  8880              LDRH     r0,[r0,#4]  ; lcddev
000af4  f2493141          MOV      r1,#0x9341
000af8  4288              CMP      r0,r1
000afa  d015              BEQ      |L1.2856|
000afc  4838              LDR      r0,|L1.3040|
000afe  8880              LDRH     r0,[r0,#4]  ; lcddev
000b00  f2453110          MOV      r1,#0x5310
000b04  4288              CMP      r0,r1
000b06  d00f              BEQ      |L1.2856|
000b08  4835              LDR      r0,|L1.3040|
000b0a  8880              LDRH     r0,[r0,#4]  ; lcddev
000b0c  f6460104          MOV      r1,#0x6804
000b10  4288              CMP      r0,r1
000b12  d009              BEQ      |L1.2856|
000b14  4832              LDR      r0,|L1.3040|
000b16  7980              LDRB     r0,[r0,#6]  ; lcddev
000b18  2801              CMP      r0,#1
000b1a  d126              BNE      |L1.2922|
000b1c  4830              LDR      r0,|L1.3040|
000b1e  8880              LDRH     r0,[r0,#4]  ; lcddev
000b20  f6411163          MOV      r1,#0x1963
000b24  4288              CMP      r0,r1
000b26  d120              BNE      |L1.2922|
                  |L1.2856|
;;;532    	{
;;;533    		LCD_WR_REG(lcddev.setxcmd); 
000b28  492d              LDR      r1,|L1.3040|
000b2a  8948              LDRH     r0,[r1,#0xa]  ; lcddev
000b2c  f7fffffe          BL       LCD_WR_REG
;;;534    		LCD_WR_DATA(sx>>8); 
000b30  1220              ASRS     r0,r4,#8
000b32  f7fffffe          BL       LCD_WR_DATA
;;;535    		LCD_WR_DATA(sx&0XFF);	 
000b36  b2e0              UXTB     r0,r4
000b38  f7fffffe          BL       LCD_WR_DATA
;;;536    		LCD_WR_DATA(twidth>>8); 
000b3c  1230              ASRS     r0,r6,#8
000b3e  f7fffffe          BL       LCD_WR_DATA
;;;537    		LCD_WR_DATA(twidth&0XFF);  
000b42  b2f0              UXTB     r0,r6
000b44  f7fffffe          BL       LCD_WR_DATA
;;;538    		LCD_WR_REG(lcddev.setycmd); 
000b48  4925              LDR      r1,|L1.3040|
000b4a  8988              LDRH     r0,[r1,#0xc]  ; lcddev
000b4c  f7fffffe          BL       LCD_WR_REG
;;;539    		LCD_WR_DATA(sy>>8); 
000b50  1228              ASRS     r0,r5,#8
000b52  f7fffffe          BL       LCD_WR_DATA
;;;540    		LCD_WR_DATA(sy&0XFF); 
000b56  b2e8              UXTB     r0,r5
000b58  f7fffffe          BL       LCD_WR_DATA
;;;541    		LCD_WR_DATA(theight>>8); 
000b5c  1238              ASRS     r0,r7,#8
000b5e  f7fffffe          BL       LCD_WR_DATA
;;;542    		LCD_WR_DATA(theight&0XFF); 
000b62  b2f8              UXTB     r0,r7
000b64  f7fffffe          BL       LCD_WR_DATA
000b68  e0be              B        |L1.3304|
                  |L1.2922|
;;;543    	}else if(lcddev.id==0X1963)//1963竖屏特殊处理
000b6a  481d              LDR      r0,|L1.3040|
000b6c  8880              LDRH     r0,[r0,#4]  ; lcddev
000b6e  f6411163          MOV      r1,#0x1963
000b72  4288              CMP      r0,r1
000b74  d13a              BNE      |L1.3052|
;;;544    	{
;;;545    		sx=lcddev.width-width-sx; 
000b76  481a              LDR      r0,|L1.3040|
000b78  8800              LDRH     r0,[r0,#0]  ; lcddev
000b7a  eba00008          SUB      r0,r0,r8
000b7e  1b00              SUBS     r0,r0,r4
000b80  b284              UXTH     r4,r0
;;;546    		height=sy+height-1; 
000b82  eb050009          ADD      r0,r5,r9
000b86  1e40              SUBS     r0,r0,#1
000b88  fa1ff980          UXTH     r9,r0
;;;547    		LCD_WR_REG(lcddev.setxcmd); 
000b8c  4914              LDR      r1,|L1.3040|
000b8e  8948              LDRH     r0,[r1,#0xa]  ; lcddev
000b90  f7fffffe          BL       LCD_WR_REG
;;;548    		LCD_WR_DATA(sx>>8); 
000b94  1220              ASRS     r0,r4,#8
000b96  f7fffffe          BL       LCD_WR_DATA
;;;549    		LCD_WR_DATA(sx&0XFF);	 
000b9a  b2e0              UXTB     r0,r4
000b9c  f7fffffe          BL       LCD_WR_DATA
;;;550    		LCD_WR_DATA((sx+width-1)>>8); 
000ba0  eb040108          ADD      r1,r4,r8
000ba4  1e49              SUBS     r1,r1,#1
000ba6  f3c1200f          UBFX     r0,r1,#8,#16
000baa  f7fffffe          BL       LCD_WR_DATA
;;;551    		LCD_WR_DATA((sx+width-1)&0XFF);  
000bae  eb040108          ADD      r1,r4,r8
000bb2  1e49              SUBS     r1,r1,#1
000bb4  b2c8              UXTB     r0,r1
000bb6  f7fffffe          BL       LCD_WR_DATA
;;;552    		LCD_WR_REG(lcddev.setycmd); 
000bba  4909              LDR      r1,|L1.3040|
000bbc  8988              LDRH     r0,[r1,#0xc]  ; lcddev
000bbe  f7fffffe          BL       LCD_WR_REG
;;;553    		LCD_WR_DATA(sy>>8); 
000bc2  1228              ASRS     r0,r5,#8
000bc4  f7fffffe          BL       LCD_WR_DATA
;;;554    		LCD_WR_DATA(sy&0XFF); 
000bc8  b2e8              UXTB     r0,r5
000bca  f7fffffe          BL       LCD_WR_DATA
;;;555    		LCD_WR_DATA(height>>8); 
000bce  ea4f2029          ASR      r0,r9,#8
000bd2  f7fffffe          BL       LCD_WR_DATA
;;;556    		LCD_WR_DATA(height&0XFF); 		
000bd6  f00900ff          AND      r0,r9,#0xff
000bda  f7fffffe          BL       LCD_WR_DATA
000bde  e083              B        |L1.3304|
                  |L1.3040|
                          DCD      lcddev
                  |L1.3044|
                          DCD      0x6c0007fe
                  |L1.3048|
                          DCD      0x40046666
                  |L1.3052|
;;;557    	}else if(lcddev.id==0X5510)
000bec  48fe              LDR      r0,|L1.4072|
000bee  8880              LDRH     r0,[r0,#4]  ; lcddev
000bf0  f2455110          MOV      r1,#0x5510
000bf4  4288              CMP      r0,r1
000bf6  d144              BNE      |L1.3202|
;;;558    	{
;;;559    		LCD_WR_REG(lcddev.setxcmd);LCD_WR_DATA(sx>>8);  
000bf8  49fb              LDR      r1,|L1.4072|
000bfa  8948              LDRH     r0,[r1,#0xa]  ; lcddev
000bfc  f7fffffe          BL       LCD_WR_REG
000c00  1220              ASRS     r0,r4,#8
000c02  f7fffffe          BL       LCD_WR_DATA
;;;560    		LCD_WR_REG(lcddev.setxcmd+1);LCD_WR_DATA(sx&0XFF);	  
000c06  49f8              LDR      r1,|L1.4072|
000c08  8949              LDRH     r1,[r1,#0xa]  ; lcddev
000c0a  1c49              ADDS     r1,r1,#1
000c0c  b288              UXTH     r0,r1
000c0e  f7fffffe          BL       LCD_WR_REG
000c12  b2e0              UXTB     r0,r4
000c14  f7fffffe          BL       LCD_WR_DATA
;;;561    		LCD_WR_REG(lcddev.setxcmd+2);LCD_WR_DATA(twidth>>8);   
000c18  49f3              LDR      r1,|L1.4072|
000c1a  8949              LDRH     r1,[r1,#0xa]  ; lcddev
000c1c  1c89              ADDS     r1,r1,#2
000c1e  b288              UXTH     r0,r1
000c20  f7fffffe          BL       LCD_WR_REG
000c24  1230              ASRS     r0,r6,#8
000c26  f7fffffe          BL       LCD_WR_DATA
;;;562    		LCD_WR_REG(lcddev.setxcmd+3);LCD_WR_DATA(twidth&0XFF);   
000c2a  49ef              LDR      r1,|L1.4072|
000c2c  8949              LDRH     r1,[r1,#0xa]  ; lcddev
000c2e  1cc9              ADDS     r1,r1,#3
000c30  b288              UXTH     r0,r1
000c32  f7fffffe          BL       LCD_WR_REG
000c36  b2f0              UXTB     r0,r6
000c38  f7fffffe          BL       LCD_WR_DATA
;;;563    		LCD_WR_REG(lcddev.setycmd);LCD_WR_DATA(sy>>8);   
000c3c  49ea              LDR      r1,|L1.4072|
000c3e  8988              LDRH     r0,[r1,#0xc]  ; lcddev
000c40  f7fffffe          BL       LCD_WR_REG
000c44  1228              ASRS     r0,r5,#8
000c46  f7fffffe          BL       LCD_WR_DATA
;;;564    		LCD_WR_REG(lcddev.setycmd+1);LCD_WR_DATA(sy&0XFF);  
000c4a  49e7              LDR      r1,|L1.4072|
000c4c  8989              LDRH     r1,[r1,#0xc]  ; lcddev
000c4e  1c49              ADDS     r1,r1,#1
000c50  b288              UXTH     r0,r1
000c52  f7fffffe          BL       LCD_WR_REG
000c56  b2e8              UXTB     r0,r5
000c58  f7fffffe          BL       LCD_WR_DATA
;;;565    		LCD_WR_REG(lcddev.setycmd+2);LCD_WR_DATA(theight>>8);   
000c5c  49e2              LDR      r1,|L1.4072|
000c5e  8989              LDRH     r1,[r1,#0xc]  ; lcddev
000c60  1c89              ADDS     r1,r1,#2
000c62  b288              UXTH     r0,r1
000c64  f7fffffe          BL       LCD_WR_REG
000c68  1238              ASRS     r0,r7,#8
000c6a  f7fffffe          BL       LCD_WR_DATA
;;;566    		LCD_WR_REG(lcddev.setycmd+3);LCD_WR_DATA(theight&0XFF);  
000c6e  49de              LDR      r1,|L1.4072|
000c70  8989              LDRH     r1,[r1,#0xc]  ; lcddev
000c72  1cc9              ADDS     r1,r1,#3
000c74  b288              UXTH     r0,r1
000c76  f7fffffe          BL       LCD_WR_REG
000c7a  b2f8              UXTB     r0,r7
000c7c  f7fffffe          BL       LCD_WR_DATA
000c80  e032              B        |L1.3304|
                  |L1.3202|
;;;567    	}else	//其他驱动IC
;;;568    	{
;;;569    		if(lcddev.dir==1)//横屏
000c82  48d9              LDR      r0,|L1.4072|
000c84  7980              LDRB     r0,[r0,#6]  ; lcddev
000c86  2801              CMP      r0,#1
000c88  d10e              BNE      |L1.3240|
;;;570    		{
;;;571    			//窗口值
;;;572    			hsaval=sy;				
000c8a  46aa              MOV      r10,r5
;;;573    			heaval=theight;
000c8c  46bb              MOV      r11,r7
;;;574    			vsaval=lcddev.width-twidth-1;
000c8e  48d6              LDR      r0,|L1.4072|
000c90  8800              LDRH     r0,[r0,#0]  ; lcddev
000c92  1b80              SUBS     r0,r0,r6
000c94  1e40              SUBS     r0,r0,#1
000c96  b280              UXTH     r0,r0
000c98  9001              STR      r0,[sp,#4]
;;;575    			veaval=lcddev.width-sx-1;				
000c9a  48d3              LDR      r0,|L1.4072|
000c9c  8800              LDRH     r0,[r0,#0]  ; lcddev
000c9e  1b00              SUBS     r0,r0,r4
000ca0  1e40              SUBS     r0,r0,#1
000ca2  b280              UXTH     r0,r0
000ca4  9000              STR      r0,[sp,#0]
000ca6  e003              B        |L1.3248|
                  |L1.3240|
;;;576    		}else
;;;577    		{ 
;;;578    			hsaval=sx;				
000ca8  46a2              MOV      r10,r4
;;;579    			heaval=twidth;
000caa  46b3              MOV      r11,r6
;;;580    			vsaval=sy;
000cac  9501              STR      r5,[sp,#4]
;;;581    			veaval=theight;
000cae  9700              STR      r7,[sp,#0]
                  |L1.3248|
;;;582    		} 
;;;583    		hsareg=0X50;heareg=0X51;//水平方向窗口寄存器
000cb0  2050              MOVS     r0,#0x50
000cb2  9005              STR      r0,[sp,#0x14]
000cb4  2051              MOVS     r0,#0x51
000cb6  9004              STR      r0,[sp,#0x10]
;;;584    		vsareg=0X52;veareg=0X53;//垂直方向窗口寄存器	   							  
000cb8  2052              MOVS     r0,#0x52
000cba  9003              STR      r0,[sp,#0xc]
000cbc  2053              MOVS     r0,#0x53
000cbe  9002              STR      r0,[sp,#8]
;;;585    		//设置寄存器值
;;;586    		LCD_WriteReg(hsareg,hsaval);
000cc0  4651              MOV      r1,r10
000cc2  9805              LDR      r0,[sp,#0x14]
000cc4  f7fffffe          BL       LCD_WriteReg
;;;587    		LCD_WriteReg(heareg,heaval);
000cc8  4659              MOV      r1,r11
000cca  9804              LDR      r0,[sp,#0x10]
000ccc  f7fffffe          BL       LCD_WriteReg
;;;588    		LCD_WriteReg(vsareg,vsaval);
000cd0  9901              LDR      r1,[sp,#4]
000cd2  9803              LDR      r0,[sp,#0xc]
000cd4  f7fffffe          BL       LCD_WriteReg
;;;589    		LCD_WriteReg(veareg,veaval);		
000cd8  9900              LDR      r1,[sp,#0]
000cda  9802              LDR      r0,[sp,#8]
000cdc  f7fffffe          BL       LCD_WriteReg
;;;590    		LCD_SetCursor(sx,sy);	//设置光标位置
000ce0  4629              MOV      r1,r5
000ce2  4620              MOV      r0,r4
000ce4  f7fffffe          BL       LCD_SetCursor
                  |L1.3304|
;;;591    	}
;;;592    }
000ce8  b006              ADD      sp,sp,#0x18
000cea  e8bd8ff0          POP      {r4-r11,pc}
;;;593    //初始化lcd
                          ENDP

                  LCD_Clear PROC
;;;2639   //color:要清屏的填充色
;;;2640   void LCD_Clear(u16 color)
000cee  b570              PUSH     {r4-r6,lr}
;;;2641   {
000cf0  4604              MOV      r4,r0
;;;2642   	u32 index=0;      
000cf2  2600              MOVS     r6,#0
;;;2643   	u32 totalpoint=lcddev.width;
000cf4  48bc              LDR      r0,|L1.4072|
000cf6  8805              LDRH     r5,[r0,#0]  ; lcddev
;;;2644   	totalpoint*=lcddev.height; 			//得到总点数
000cf8  8840              LDRH     r0,[r0,#2]  ; lcddev
000cfa  4345              MULS     r5,r0,r5
;;;2645   	if((lcddev.id==0X6804)&&(lcddev.dir==1))//6804横屏的时候特殊处理  
000cfc  48ba              LDR      r0,|L1.4072|
000cfe  8880              LDRH     r0,[r0,#4]  ; lcddev
000d00  f6460104          MOV      r1,#0x6804
000d04  4288              CMP      r0,r1
000d06  d116              BNE      |L1.3382|
000d08  48b7              LDR      r0,|L1.4072|
000d0a  7980              LDRB     r0,[r0,#6]  ; lcddev
000d0c  2801              CMP      r0,#1
000d0e  d112              BNE      |L1.3382|
;;;2646   	{						    
;;;2647    		lcddev.dir=0;	 
000d10  2000              MOVS     r0,#0
000d12  49b5              LDR      r1,|L1.4072|
000d14  7188              STRB     r0,[r1,#6]
;;;2648    		lcddev.setxcmd=0X2A;
000d16  202a              MOVS     r0,#0x2a
000d18  8148              STRH     r0,[r1,#0xa]
;;;2649   		lcddev.setycmd=0X2B;  	 			
000d1a  202b              MOVS     r0,#0x2b
000d1c  8188              STRH     r0,[r1,#0xc]
;;;2650   		LCD_SetCursor(0x00,0x0000);		//设置光标位置  
000d1e  2100              MOVS     r1,#0
000d20  4608              MOV      r0,r1
000d22  f7fffffe          BL       LCD_SetCursor
;;;2651    		lcddev.dir=1;	 
000d26  2001              MOVS     r0,#1
000d28  49af              LDR      r1,|L1.4072|
000d2a  7188              STRB     r0,[r1,#6]
;;;2652     		lcddev.setxcmd=0X2B;
000d2c  202b              MOVS     r0,#0x2b
000d2e  8148              STRH     r0,[r1,#0xa]
;;;2653   		lcddev.setycmd=0X2A;  	 
000d30  202a              MOVS     r0,#0x2a
000d32  8188              STRH     r0,[r1,#0xc]
000d34  e003              B        |L1.3390|
                  |L1.3382|
;;;2654    	}else LCD_SetCursor(0x00,0x0000);	//设置光标位置 
000d36  2100              MOVS     r1,#0
000d38  4608              MOV      r0,r1
000d3a  f7fffffe          BL       LCD_SetCursor
                  |L1.3390|
;;;2655   	LCD_WriteRAM_Prepare();     		//开始写入GRAM	 	  
000d3e  f7fffffe          BL       LCD_WriteRAM_Prepare
;;;2656   	for(index=0;index<totalpoint;index++)
000d42  2600              MOVS     r6,#0
000d44  e002              B        |L1.3404|
                  |L1.3398|
;;;2657   	{
;;;2658   		LCD->LCD_RAM=color;	
000d46  48a9              LDR      r0,|L1.4076|
000d48  8004              STRH     r4,[r0,#0]
000d4a  1c76              ADDS     r6,r6,#1              ;2656
                  |L1.3404|
000d4c  42ae              CMP      r6,r5                 ;2656
000d4e  d3fa              BCC      |L1.3398|
;;;2659   	}
;;;2660   }  
000d50  bd70              POP      {r4-r6,pc}
;;;2661   //在指定区域内填充单个颜色
                          ENDP

                  LCD_Init PROC
;;;595    //在其他型号的驱动芯片上没有测试! 
;;;596    void LCD_Init(void)
000d52  b500              PUSH     {lr}
;;;597    { 					
000d54  b09f              SUB      sp,sp,#0x7c
;;;598     	GPIO_InitTypeDef GPIO_InitStructure;
;;;599    	FSMC_NORSRAMInitTypeDef  FSMC_NORSRAMInitStructure;
;;;600      FSMC_NORSRAMTimingInitTypeDef  readWriteTiming; 
;;;601    	FSMC_NORSRAMTimingInitTypeDef  writeTiming;
;;;602    	
;;;603      RCC_AHBPeriphClockCmd(RCC_AHBPeriph_FSMC,ENABLE);	//使能FSMC时钟
000d56  2101              MOVS     r1,#1
000d58  0208              LSLS     r0,r1,#8
000d5a  f7fffffe          BL       RCC_AHBPeriphClockCmd
;;;604    	RCC_APB2PeriphClockCmd(RCC_APB2Periph_GPIOB|RCC_APB2Periph_GPIOD|RCC_APB2Periph_GPIOE|RCC_APB2Periph_GPIOG,ENABLE);//使能PORTB,D,E,G以及AFIO复用功能时钟
000d5e  2101              MOVS     r1,#1
000d60  f44f70b4          MOV      r0,#0x168
000d64  f7fffffe          BL       RCC_APB2PeriphClockCmd
;;;605    
;;;606     
;;;607     	GPIO_InitStructure.GPIO_Pin = GPIO_Pin_0;				 //PB0 推挽输出 背光
000d68  2001              MOVS     r0,#1
000d6a  f8ad0078          STRH     r0,[sp,#0x78]
;;;608     	GPIO_InitStructure.GPIO_Mode = GPIO_Mode_Out_PP; 		 //推挽输出
000d6e  2010              MOVS     r0,#0x10
000d70  f88d007b          STRB     r0,[sp,#0x7b]
;;;609     	GPIO_InitStructure.GPIO_Speed = GPIO_Speed_50MHz;
000d74  2003              MOVS     r0,#3
000d76  f88d007a          STRB     r0,[sp,#0x7a]
;;;610     	GPIO_Init(GPIOB, &GPIO_InitStructure);
000d7a  a91e              ADD      r1,sp,#0x78
000d7c  489c              LDR      r0,|L1.4080|
000d7e  f7fffffe          BL       GPIO_Init
;;;611    	
;;;612     	//PORTD复用推挽输出  
;;;613    	GPIO_InitStructure.GPIO_Pin = GPIO_Pin_0|GPIO_Pin_1|GPIO_Pin_4|GPIO_Pin_5|GPIO_Pin_8|GPIO_Pin_9|GPIO_Pin_10|GPIO_Pin_14|GPIO_Pin_15;				 //	//PORTD复用推挽输出  
000d82  f24c7033          MOV      r0,#0xc733
000d86  f8ad0078          STRH     r0,[sp,#0x78]
;;;614     	GPIO_InitStructure.GPIO_Mode = GPIO_Mode_AF_PP; 		 //复用推挽输出   
000d8a  2018              MOVS     r0,#0x18
000d8c  f88d007b          STRB     r0,[sp,#0x7b]
;;;615     	GPIO_InitStructure.GPIO_Speed = GPIO_Speed_50MHz;
000d90  2003              MOVS     r0,#3
000d92  f88d007a          STRB     r0,[sp,#0x7a]
;;;616     	GPIO_Init(GPIOD, &GPIO_InitStructure); 
000d96  a91e              ADD      r1,sp,#0x78
000d98  4896              LDR      r0,|L1.4084|
000d9a  f7fffffe          BL       GPIO_Init
;;;617      	 
;;;618    	//PORTE复用推挽输出  
;;;619    	GPIO_InitStructure.GPIO_Pin = GPIO_Pin_7|GPIO_Pin_8|GPIO_Pin_9|GPIO_Pin_10|GPIO_Pin_11|GPIO_Pin_12|GPIO_Pin_13|GPIO_Pin_14|GPIO_Pin_15;				 //	//PORTD复用推挽输出  
000d9e  f64f7080          MOV      r0,#0xff80
000da2  f8ad0078          STRH     r0,[sp,#0x78]
;;;620     	GPIO_InitStructure.GPIO_Mode = GPIO_Mode_AF_PP; 		 //复用推挽输出   
000da6  2018              MOVS     r0,#0x18
000da8  f88d007b          STRB     r0,[sp,#0x7b]
;;;621     	GPIO_InitStructure.GPIO_Speed = GPIO_Speed_50MHz;
000dac  2003              MOVS     r0,#3
000dae  f88d007a          STRB     r0,[sp,#0x7a]
;;;622     	GPIO_Init(GPIOE, &GPIO_InitStructure);    	    	 											 
000db2  a91e              ADD      r1,sp,#0x78
000db4  4890              LDR      r0,|L1.4088|
000db6  f7fffffe          BL       GPIO_Init
;;;623    
;;;624       	//	//PORTG12复用推挽输出 A0	
;;;625    	GPIO_InitStructure.GPIO_Pin = GPIO_Pin_0|GPIO_Pin_12;	 //	//PORTD复用推挽输出  
000dba  f2410001          MOV      r0,#0x1001
000dbe  f8ad0078          STRH     r0,[sp,#0x78]
;;;626     	GPIO_InitStructure.GPIO_Mode = GPIO_Mode_AF_PP; 		 //复用推挽输出   
000dc2  2018              MOVS     r0,#0x18
000dc4  f88d007b          STRB     r0,[sp,#0x7b]
;;;627     	GPIO_InitStructure.GPIO_Speed = GPIO_Speed_50MHz;
000dc8  2003              MOVS     r0,#3
000dca  f88d007a          STRB     r0,[sp,#0x7a]
;;;628     	GPIO_Init(GPIOG, &GPIO_InitStructure); 
000dce  a91e              ADD      r1,sp,#0x78
000dd0  488a              LDR      r0,|L1.4092|
000dd2  f7fffffe          BL       GPIO_Init
;;;629    
;;;630    	readWriteTiming.FSMC_AddressSetupTime = 0x01;	 //地址建立时间（ADDSET）为2个HCLK 1/36M=27ns
000dd6  2001              MOVS     r0,#1
000dd8  9008              STR      r0,[sp,#0x20]
;;;631      readWriteTiming.FSMC_AddressHoldTime = 0x00;	 //地址保持时间（ADDHLD）模式A未用到	
000dda  2000              MOVS     r0,#0
000ddc  9009              STR      r0,[sp,#0x24]
;;;632      readWriteTiming.FSMC_DataSetupTime = 0x0f;		 // 数据保存时间为16个HCLK,因为液晶驱动IC的读数据的时候，速度不能太快，尤其对1289这个IC。
000dde  200f              MOVS     r0,#0xf
000de0  900a              STR      r0,[sp,#0x28]
;;;633      readWriteTiming.FSMC_BusTurnAroundDuration = 0x00;
000de2  2000              MOVS     r0,#0
000de4  900b              STR      r0,[sp,#0x2c]
;;;634      readWriteTiming.FSMC_CLKDivision = 0x00;
000de6  900c              STR      r0,[sp,#0x30]
;;;635      readWriteTiming.FSMC_DataLatency = 0x00;
000de8  900d              STR      r0,[sp,#0x34]
;;;636      readWriteTiming.FSMC_AccessMode = FSMC_AccessMode_A;	 //模式A 
000dea  900e              STR      r0,[sp,#0x38]
;;;637        
;;;638    
;;;639    	writeTiming.FSMC_AddressSetupTime = 0x00;	 //地址建立时间（ADDSET）为1个HCLK  
000dec  9001              STR      r0,[sp,#4]
;;;640      writeTiming.FSMC_AddressHoldTime = 0x00;	 //地址保持时间（A		
000dee  9002              STR      r0,[sp,#8]
;;;641      writeTiming.FSMC_DataSetupTime = 0x03;		 ////数据保存时间为4个HCLK	
000df0  2003              MOVS     r0,#3
000df2  9003              STR      r0,[sp,#0xc]
;;;642      writeTiming.FSMC_BusTurnAroundDuration = 0x00;
000df4  2000              MOVS     r0,#0
000df6  9004              STR      r0,[sp,#0x10]
;;;643      writeTiming.FSMC_CLKDivision = 0x00;
000df8  9005              STR      r0,[sp,#0x14]
;;;644      writeTiming.FSMC_DataLatency = 0x00;
000dfa  9006              STR      r0,[sp,#0x18]
;;;645      writeTiming.FSMC_AccessMode = FSMC_AccessMode_A;	 //模式A 
000dfc  9007              STR      r0,[sp,#0x1c]
;;;646    
;;;647     
;;;648      FSMC_NORSRAMInitStructure.FSMC_Bank = FSMC_Bank1_NORSRAM4;//  这里我们使用NE4 ，也就对应BTCR[6],[7]。
000dfe  2006              MOVS     r0,#6
000e00  900f              STR      r0,[sp,#0x3c]
;;;649      FSMC_NORSRAMInitStructure.FSMC_DataAddressMux = FSMC_DataAddressMux_Disable; // 不复用数据地址
000e02  2000              MOVS     r0,#0
000e04  9010              STR      r0,[sp,#0x40]
;;;650      FSMC_NORSRAMInitStructure.FSMC_MemoryType =FSMC_MemoryType_SRAM;// FSMC_MemoryType_SRAM;  //SRAM   
000e06  9011              STR      r0,[sp,#0x44]
;;;651      FSMC_NORSRAMInitStructure.FSMC_MemoryDataWidth = FSMC_MemoryDataWidth_16b;//存储器数据宽度为16bit   
000e08  2010              MOVS     r0,#0x10
000e0a  9012              STR      r0,[sp,#0x48]
;;;652      FSMC_NORSRAMInitStructure.FSMC_BurstAccessMode =FSMC_BurstAccessMode_Disable;// FSMC_BurstAccessMode_Disable; 
000e0c  2000              MOVS     r0,#0
000e0e  9013              STR      r0,[sp,#0x4c]
;;;653      FSMC_NORSRAMInitStructure.FSMC_WaitSignalPolarity = FSMC_WaitSignalPolarity_Low;
000e10  9015              STR      r0,[sp,#0x54]
;;;654    	FSMC_NORSRAMInitStructure.FSMC_AsynchronousWait=FSMC_AsynchronousWait_Disable; 
000e12  9014              STR      r0,[sp,#0x50]
;;;655      FSMC_NORSRAMInitStructure.FSMC_WrapMode = FSMC_WrapMode_Disable;   
000e14  9016              STR      r0,[sp,#0x58]
;;;656      FSMC_NORSRAMInitStructure.FSMC_WaitSignalActive = FSMC_WaitSignalActive_BeforeWaitState;  
000e16  9017              STR      r0,[sp,#0x5c]
;;;657      FSMC_NORSRAMInitStructure.FSMC_WriteOperation = FSMC_WriteOperation_Enable;	//  存储器写使能
000e18  f44f5080          MOV      r0,#0x1000
000e1c  9018              STR      r0,[sp,#0x60]
;;;658      FSMC_NORSRAMInitStructure.FSMC_WaitSignal = FSMC_WaitSignal_Disable;   
000e1e  2000              MOVS     r0,#0
000e20  9019              STR      r0,[sp,#0x64]
;;;659      FSMC_NORSRAMInitStructure.FSMC_ExtendedMode = FSMC_ExtendedMode_Enable; // 读写使用不同的时序
000e22  f44f4080          MOV      r0,#0x4000
000e26  901a              STR      r0,[sp,#0x68]
;;;660      FSMC_NORSRAMInitStructure.FSMC_WriteBurst = FSMC_WriteBurst_Disable; 
000e28  2000              MOVS     r0,#0
000e2a  901b              STR      r0,[sp,#0x6c]
;;;661      FSMC_NORSRAMInitStructure.FSMC_ReadWriteTimingStruct = &readWriteTiming; //读写时序
000e2c  a808              ADD      r0,sp,#0x20
000e2e  901c              STR      r0,[sp,#0x70]
;;;662      FSMC_NORSRAMInitStructure.FSMC_WriteTimingStruct = &writeTiming;  //写时序
000e30  a801              ADD      r0,sp,#4
000e32  901d              STR      r0,[sp,#0x74]
;;;663    
;;;664      FSMC_NORSRAMInit(&FSMC_NORSRAMInitStructure);  //初始化FSMC配置
000e34  a80f              ADD      r0,sp,#0x3c
000e36  f7fffffe          BL       FSMC_NORSRAMInit
;;;665    
;;;666     	FSMC_NORSRAMCmd(FSMC_Bank1_NORSRAM4, ENABLE);  // 使能BANK1 
000e3a  2101              MOVS     r1,#1
000e3c  2006              MOVS     r0,#6
000e3e  f7fffffe          BL       FSMC_NORSRAMCmd
;;;667    		
;;;668     
;;;669    	delay_ms(50); 					// delay 50 ms 
000e42  2032              MOVS     r0,#0x32
000e44  f7fffffe          BL       delay_ms
;;;670      	lcddev.id=LCD_ReadReg(0x0000);	//读ID（9320/9325/9328/4531/4535等IC）   
000e48  2000              MOVS     r0,#0
000e4a  f7fffffe          BL       LCD_ReadReg
000e4e  4966              LDR      r1,|L1.4072|
000e50  8088              STRH     r0,[r1,#4]
;;;671      	if(lcddev.id<0XFF||lcddev.id==0XFFFF||lcddev.id==0X9300)//读到ID不正确,新增lcddev.id==0X9300判断，因为9341在未被复位的情况下会被读成9300
000e52  4608              MOV      r0,r1
000e54  8880              LDRH     r0,[r0,#4]  ; lcddev
000e56  28ff              CMP      r0,#0xff
000e58  db0a              BLT      |L1.3696|
000e5a  4608              MOV      r0,r1
000e5c  8880              LDRH     r0,[r0,#4]  ; lcddev
000e5e  f64f71ff          MOV      r1,#0xffff
000e62  4288              CMP      r0,r1
000e64  d004              BEQ      |L1.3696|
000e66  4860              LDR      r0,|L1.4072|
000e68  8880              LDRH     r0,[r0,#4]  ; lcddev
000e6a  f5b04f13          CMP      r0,#0x9300
000e6e  d17c              BNE      |L1.3946|
                  |L1.3696|
;;;672    	{	
;;;673     		//尝试9341 ID的读取		
;;;674    		LCD_WR_REG(0XD3);				   
000e70  20d3              MOVS     r0,#0xd3
000e72  f7fffffe          BL       LCD_WR_REG
;;;675    		lcddev.id=LCD_RD_DATA();	//dummy read 	
000e76  f7fffffe          BL       LCD_RD_DATA
000e7a  495b              LDR      r1,|L1.4072|
000e7c  8088              STRH     r0,[r1,#4]
;;;676     		lcddev.id=LCD_RD_DATA();	//读到0X00
000e7e  f7fffffe          BL       LCD_RD_DATA
000e82  4959              LDR      r1,|L1.4072|
000e84  8088              STRH     r0,[r1,#4]
;;;677      		lcddev.id=LCD_RD_DATA();   	//读取93								   
000e86  f7fffffe          BL       LCD_RD_DATA
000e8a  4957              LDR      r1,|L1.4072|
000e8c  8088              STRH     r0,[r1,#4]
;;;678     		lcddev.id<<=8;
000e8e  4608              MOV      r0,r1
000e90  8880              LDRH     r0,[r0,#4]  ; lcddev
000e92  f64f71ff          MOV      r1,#0xffff
000e96  ea012000          AND      r0,r1,r0,LSL #8
000e9a  4953              LDR      r1,|L1.4072|
000e9c  8088              STRH     r0,[r1,#4]
;;;679    		lcddev.id|=LCD_RD_DATA();  	//读取41 	   			   
000e9e  f7fffffe          BL       LCD_RD_DATA
000ea2  4951              LDR      r1,|L1.4072|
000ea4  8889              LDRH     r1,[r1,#4]  ; lcddev
000ea6  4308              ORRS     r0,r0,r1
000ea8  494f              LDR      r1,|L1.4072|
000eaa  8088              STRH     r0,[r1,#4]
;;;680     		if(lcddev.id!=0X9341)		//非9341,尝试是不是6804
000eac  4608              MOV      r0,r1
000eae  8880              LDRH     r0,[r0,#4]  ; lcddev
000eb0  f2493141          MOV      r1,#0x9341
000eb4  4288              CMP      r0,r1
000eb6  d058              BEQ      |L1.3946|
;;;681    		{	
;;;682     			LCD_WR_REG(0XBF);				   
000eb8  20bf              MOVS     r0,#0xbf
000eba  f7fffffe          BL       LCD_WR_REG
;;;683    			lcddev.id=LCD_RD_DATA(); 	//dummy read 	 
000ebe  f7fffffe          BL       LCD_RD_DATA
000ec2  4949              LDR      r1,|L1.4072|
000ec4  8088              STRH     r0,[r1,#4]
;;;684    	 		lcddev.id=LCD_RD_DATA();   	//读回0X01			   
000ec6  f7fffffe          BL       LCD_RD_DATA
000eca  4947              LDR      r1,|L1.4072|
000ecc  8088              STRH     r0,[r1,#4]
;;;685    	 		lcddev.id=LCD_RD_DATA(); 	//读回0XD0 			  	
000ece  f7fffffe          BL       LCD_RD_DATA
000ed2  4945              LDR      r1,|L1.4072|
000ed4  8088              STRH     r0,[r1,#4]
;;;686    	  		lcddev.id=LCD_RD_DATA();	//这里读回0X68 
000ed6  f7fffffe          BL       LCD_RD_DATA
000eda  4943              LDR      r1,|L1.4072|
000edc  8088              STRH     r0,[r1,#4]
;;;687    			lcddev.id<<=8;
000ede  4608              MOV      r0,r1
000ee0  8880              LDRH     r0,[r0,#4]  ; lcddev
000ee2  f64f71ff          MOV      r1,#0xffff
000ee6  ea012000          AND      r0,r1,r0,LSL #8
000eea  493f              LDR      r1,|L1.4072|
000eec  8088              STRH     r0,[r1,#4]
;;;688    	  		lcddev.id|=LCD_RD_DATA();	//这里读回0X04	  
000eee  f7fffffe          BL       LCD_RD_DATA
000ef2  493d              LDR      r1,|L1.4072|
000ef4  8889              LDRH     r1,[r1,#4]  ; lcddev
000ef6  4308              ORRS     r0,r0,r1
000ef8  493b              LDR      r1,|L1.4072|
000efa  8088              STRH     r0,[r1,#4]
;;;689    			if(lcddev.id!=0X6804)		//也不是6804,尝试看看是不是NT35310
000efc  4608              MOV      r0,r1
000efe  8880              LDRH     r0,[r0,#4]  ; lcddev
000f00  f6460104          MOV      r1,#0x6804
000f04  4288              CMP      r0,r1
000f06  d030              BEQ      |L1.3946|
;;;690    			{ 
;;;691    				LCD_WR_REG(0XD4);				   
000f08  20d4              MOVS     r0,#0xd4
000f0a  f7fffffe          BL       LCD_WR_REG
;;;692    				lcddev.id=LCD_RD_DATA();//dummy read  
000f0e  f7fffffe          BL       LCD_RD_DATA
000f12  4935              LDR      r1,|L1.4072|
000f14  8088              STRH     r0,[r1,#4]
;;;693    				lcddev.id=LCD_RD_DATA();//读回0X01	 
000f16  f7fffffe          BL       LCD_RD_DATA
000f1a  4933              LDR      r1,|L1.4072|
000f1c  8088              STRH     r0,[r1,#4]
;;;694    				lcddev.id=LCD_RD_DATA();//读回0X53	
000f1e  f7fffffe          BL       LCD_RD_DATA
000f22  4931              LDR      r1,|L1.4072|
000f24  8088              STRH     r0,[r1,#4]
;;;695    				lcddev.id<<=8;	 
000f26  4608              MOV      r0,r1
000f28  8880              LDRH     r0,[r0,#4]  ; lcddev
000f2a  f64f71ff          MOV      r1,#0xffff
000f2e  ea012000          AND      r0,r1,r0,LSL #8
000f32  492d              LDR      r1,|L1.4072|
000f34  8088              STRH     r0,[r1,#4]
;;;696    				lcddev.id|=LCD_RD_DATA();	//这里读回0X10	 
000f36  f7fffffe          BL       LCD_RD_DATA
000f3a  492b              LDR      r1,|L1.4072|
000f3c  8889              LDRH     r1,[r1,#4]  ; lcddev
000f3e  4308              ORRS     r0,r0,r1
000f40  4929              LDR      r1,|L1.4072|
000f42  8088              STRH     r0,[r1,#4]
;;;697    				if(lcddev.id!=0X5310)		//也不是NT35310,尝试看看是不是NT35510
000f44  4608              MOV      r0,r1
000f46  8880              LDRH     r0,[r0,#4]  ; lcddev
000f48  f2453110          MOV      r1,#0x5310
000f4c  4288              CMP      r0,r1
000f4e  d063              BEQ      |L1.4120|
;;;698    				{
;;;699    					LCD_WR_REG(0XDA00);	
000f50  f44f405a          MOV      r0,#0xda00
000f54  f7fffffe          BL       LCD_WR_REG
;;;700    					lcddev.id=LCD_RD_DATA();		//读回0X00	 
000f58  f7fffffe          BL       LCD_RD_DATA
000f5c  4922              LDR      r1,|L1.4072|
000f5e  8088              STRH     r0,[r1,#4]
;;;701    					LCD_WR_REG(0XDB00);	
000f60  f44f405b          MOV      r0,#0xdb00
000f64  f7fffffe          BL       LCD_WR_REG
;;;702    					lcddev.id=LCD_RD_DATA();		//读回0X80
000f68  e000              B        |L1.3948|
                  |L1.3946|
000f6a  e055              B        |L1.4120|
                  |L1.3948|
000f6c  f7fffffe          BL       LCD_RD_DATA
000f70  491d              LDR      r1,|L1.4072|
000f72  8088              STRH     r0,[r1,#4]
;;;703    					lcddev.id<<=8;	
000f74  4608              MOV      r0,r1
000f76  8880              LDRH     r0,[r0,#4]  ; lcddev
000f78  f64f71ff          MOV      r1,#0xffff
000f7c  ea012000          AND      r0,r1,r0,LSL #8
000f80  4919              LDR      r1,|L1.4072|
000f82  8088              STRH     r0,[r1,#4]
;;;704    					LCD_WR_REG(0XDC00);	
000f84  f44f405c          MOV      r0,#0xdc00
000f88  f7fffffe          BL       LCD_WR_REG
;;;705    					lcddev.id|=LCD_RD_DATA();		//读回0X00		
000f8c  f7fffffe          BL       LCD_RD_DATA
000f90  4915              LDR      r1,|L1.4072|
000f92  8889              LDRH     r1,[r1,#4]  ; lcddev
000f94  4308              ORRS     r0,r0,r1
000f96  4914              LDR      r1,|L1.4072|
000f98  8088              STRH     r0,[r1,#4]
;;;706    					if(lcddev.id==0x8000)lcddev.id=0x5510;//NT35510读回的ID是8000H,为方便区分,我们强制设置为5510
000f9a  4608              MOV      r0,r1
000f9c  8880              LDRH     r0,[r0,#4]  ; lcddev
000f9e  f5b04f00          CMP      r0,#0x8000
000fa2  d102              BNE      |L1.4010|
000fa4  f2455010          MOV      r0,#0x5510
000fa8  8088              STRH     r0,[r1,#4]
                  |L1.4010|
;;;707    					if(lcddev.id!=0X5510)			//也不是NT5510,尝试看看是不是SSD1963
000faa  480f              LDR      r0,|L1.4072|
000fac  8880              LDRH     r0,[r0,#4]  ; lcddev
000fae  f2455110          MOV      r1,#0x5510
000fb2  4288              CMP      r0,r1
000fb4  d030              BEQ      |L1.4120|
;;;708    					{
;;;709    						LCD_WR_REG(0XA1);
000fb6  20a1              MOVS     r0,#0xa1
000fb8  f7fffffe          BL       LCD_WR_REG
;;;710    						lcddev.id=LCD_RD_DATA();
000fbc  f7fffffe          BL       LCD_RD_DATA
000fc0  4909              LDR      r1,|L1.4072|
000fc2  8088              STRH     r0,[r1,#4]
;;;711    						lcddev.id=LCD_RD_DATA();	//读回0X57
000fc4  f7fffffe          BL       LCD_RD_DATA
000fc8  4907              LDR      r1,|L1.4072|
000fca  8088              STRH     r0,[r1,#4]
;;;712    						lcddev.id<<=8;	 
000fcc  4608              MOV      r0,r1
000fce  8880              LDRH     r0,[r0,#4]  ; lcddev
000fd0  f64f71ff          MOV      r1,#0xffff
000fd4  ea012000          AND      r0,r1,r0,LSL #8
000fd8  4903              LDR      r1,|L1.4072|
000fda  8088              STRH     r0,[r1,#4]
;;;713    						lcddev.id|=LCD_RD_DATA();	//读回0X61	
000fdc  f7fffffe          BL       LCD_RD_DATA
000fe0  4901              LDR      r1,|L1.4072|
000fe2  8889              LDRH     r1,[r1,#4]  ; lcddev
000fe4  4308              ORRS     r0,r0,r1
000fe6  e00b              B        |L1.4096|
                  |L1.4072|
                          DCD      lcddev
                  |L1.4076|
                          DCD      0x6c000800
                  |L1.4080|
                          DCD      0x40010c00
                  |L1.4084|
                          DCD      0x40011400
                  |L1.4088|
                          DCD      0x40011800
                  |L1.4092|
                          DCD      0x40012000
                  |L1.4096|
001000  49fe              LDR      r1,|L1.5116|
001002  8088              STRH     r0,[r1,#4]
;;;714    						if(lcddev.id==0X5761)lcddev.id=0X1963;//SSD1963读回的ID是5761H,为方便区分,我们强制设置为1963
001004  4608              MOV      r0,r1
001006  8880              LDRH     r0,[r0,#4]  ; lcddev
001008  f2457161          MOV      r1,#0x5761
00100c  4288              CMP      r0,r1
00100e  d103              BNE      |L1.4120|
001010  f6411063          MOV      r0,#0x1963
001014  49f9              LDR      r1,|L1.5116|
001016  8088              STRH     r0,[r1,#4]
                  |L1.4120|
;;;715    					}
;;;716    				}
;;;717    			}
;;;718     		}  	
;;;719    	} 
;;;720     	printf(" LCD ID:%x\r\n",lcddev.id); //打印LCD ID   
001018  48f8              LDR      r0,|L1.5116|
00101a  8881              LDRH     r1,[r0,#4]  ; lcddev
00101c  a0f8              ADR      r0,|L1.5120|
00101e  f7fffffe          BL       __2printf
;;;721    	if(lcddev.id==0X9341)	//9341初始化
001022  48f6              LDR      r0,|L1.5116|
001024  8880              LDRH     r0,[r0,#4]  ; lcddev
001026  f2493141          MOV      r1,#0x9341
00102a  4288              CMP      r0,r1
00102c  d17e              BNE      |L1.4396|
;;;722    	{	 
;;;723    		LCD_WR_REG(0xCF);  
00102e  20cf              MOVS     r0,#0xcf
001030  f7fffffe          BL       LCD_WR_REG
;;;724    		LCD_WR_DATA(0x00); 
001034  2000              MOVS     r0,#0
001036  f7fffffe          BL       LCD_WR_DATA
;;;725    		LCD_WR_DATA(0xC1); 
00103a  20c1              MOVS     r0,#0xc1
00103c  f7fffffe          BL       LCD_WR_DATA
;;;726    		LCD_WR_DATA(0X30); 
001040  2030              MOVS     r0,#0x30
001042  f7fffffe          BL       LCD_WR_DATA
;;;727    		LCD_WR_REG(0xED);  
001046  20ed              MOVS     r0,#0xed
001048  f7fffffe          BL       LCD_WR_REG
;;;728    		LCD_WR_DATA(0x64); 
00104c  2064              MOVS     r0,#0x64
00104e  f7fffffe          BL       LCD_WR_DATA
;;;729    		LCD_WR_DATA(0x03); 
001052  2003              MOVS     r0,#3
001054  f7fffffe          BL       LCD_WR_DATA
;;;730    		LCD_WR_DATA(0X12); 
001058  2012              MOVS     r0,#0x12
00105a  f7fffffe          BL       LCD_WR_DATA
;;;731    		LCD_WR_DATA(0X81); 
00105e  2081              MOVS     r0,#0x81
001060  f7fffffe          BL       LCD_WR_DATA
;;;732    		LCD_WR_REG(0xE8);  
001064  20e8              MOVS     r0,#0xe8
001066  f7fffffe          BL       LCD_WR_REG
;;;733    		LCD_WR_DATA(0x85); 
00106a  2085              MOVS     r0,#0x85
00106c  f7fffffe          BL       LCD_WR_DATA
;;;734    		LCD_WR_DATA(0x10); 
001070  2010              MOVS     r0,#0x10
001072  f7fffffe          BL       LCD_WR_DATA
;;;735    		LCD_WR_DATA(0x7A); 
001076  207a              MOVS     r0,#0x7a
001078  f7fffffe          BL       LCD_WR_DATA
;;;736    		LCD_WR_REG(0xCB);  
00107c  20cb              MOVS     r0,#0xcb
00107e  f7fffffe          BL       LCD_WR_REG
;;;737    		LCD_WR_DATA(0x39); 
001082  2039              MOVS     r0,#0x39
001084  f7fffffe          BL       LCD_WR_DATA
;;;738    		LCD_WR_DATA(0x2C); 
001088  202c              MOVS     r0,#0x2c
00108a  f7fffffe          BL       LCD_WR_DATA
;;;739    		LCD_WR_DATA(0x00); 
00108e  2000              MOVS     r0,#0
001090  f7fffffe          BL       LCD_WR_DATA
;;;740    		LCD_WR_DATA(0x34); 
001094  2034              MOVS     r0,#0x34
001096  f7fffffe          BL       LCD_WR_DATA
;;;741    		LCD_WR_DATA(0x02); 
00109a  2002              MOVS     r0,#2
00109c  f7fffffe          BL       LCD_WR_DATA
;;;742    		LCD_WR_REG(0xF7);  
0010a0  20f7              MOVS     r0,#0xf7
0010a2  f7fffffe          BL       LCD_WR_REG
;;;743    		LCD_WR_DATA(0x20); 
0010a6  2020              MOVS     r0,#0x20
0010a8  f7fffffe          BL       LCD_WR_DATA
;;;744    		LCD_WR_REG(0xEA);  
0010ac  20ea              MOVS     r0,#0xea
0010ae  f7fffffe          BL       LCD_WR_REG
;;;745    		LCD_WR_DATA(0x00); 
0010b2  2000              MOVS     r0,#0
0010b4  f7fffffe          BL       LCD_WR_DATA
;;;746    		LCD_WR_DATA(0x00); 
0010b8  2000              MOVS     r0,#0
0010ba  f7fffffe          BL       LCD_WR_DATA
;;;747    		LCD_WR_REG(0xC0);    //Power control 
0010be  20c0              MOVS     r0,#0xc0
0010c0  f7fffffe          BL       LCD_WR_REG
;;;748    		LCD_WR_DATA(0x1B);   //VRH[5:0] 
0010c4  201b              MOVS     r0,#0x1b
0010c6  f7fffffe          BL       LCD_WR_DATA
;;;749    		LCD_WR_REG(0xC1);    //Power control 
0010ca  20c1              MOVS     r0,#0xc1
0010cc  f7fffffe          BL       LCD_WR_REG
;;;750    		LCD_WR_DATA(0x01);   //SAP[2:0];BT[3:0] 
0010d0  2001              MOVS     r0,#1
0010d2  f7fffffe          BL       LCD_WR_DATA
;;;751    		LCD_WR_REG(0xC5);    //VCM control 
0010d6  20c5              MOVS     r0,#0xc5
0010d8  f7fffffe          BL       LCD_WR_REG
;;;752    		LCD_WR_DATA(0x30); 	 //3F
0010dc  2030              MOVS     r0,#0x30
0010de  f7fffffe          BL       LCD_WR_DATA
;;;753    		LCD_WR_DATA(0x30); 	 //3C
0010e2  2030              MOVS     r0,#0x30
0010e4  f7fffffe          BL       LCD_WR_DATA
;;;754    		LCD_WR_REG(0xC7);    //VCM control2 
0010e8  20c7              MOVS     r0,#0xc7
0010ea  f7fffffe          BL       LCD_WR_REG
;;;755    		LCD_WR_DATA(0XB7); 
0010ee  20b7              MOVS     r0,#0xb7
0010f0  f7fffffe          BL       LCD_WR_DATA
;;;756    		LCD_WR_REG(0x36);    // Memory Access Control 
0010f4  2036              MOVS     r0,#0x36
0010f6  f7fffffe          BL       LCD_WR_REG
;;;757    		LCD_WR_DATA(0x48); 
0010fa  2048              MOVS     r0,#0x48
0010fc  f7fffffe          BL       LCD_WR_DATA
;;;758    		LCD_WR_REG(0x3A);   
001100  203a              MOVS     r0,#0x3a
001102  f7fffffe          BL       LCD_WR_REG
;;;759    		LCD_WR_DATA(0x55); 
001106  2055              MOVS     r0,#0x55
001108  f7fffffe          BL       LCD_WR_DATA
;;;760    		LCD_WR_REG(0xB1);   
00110c  20b1              MOVS     r0,#0xb1
00110e  f7fffffe          BL       LCD_WR_REG
;;;761    		LCD_WR_DATA(0x00);   
001112  2000              MOVS     r0,#0
001114  f7fffffe          BL       LCD_WR_DATA
;;;762    		LCD_WR_DATA(0x1A); 
001118  201a              MOVS     r0,#0x1a
00111a  f7fffffe          BL       LCD_WR_DATA
;;;763    		LCD_WR_REG(0xB6);    // Display Function Control 
00111e  20b6              MOVS     r0,#0xb6
001120  f7fffffe          BL       LCD_WR_REG
;;;764    		LCD_WR_DATA(0x0A); 
001124  200a              MOVS     r0,#0xa
001126  f7fffffe          BL       LCD_WR_DATA
;;;765    		LCD_WR_DATA(0xA2); 
00112a  e000              B        |L1.4398|
                  |L1.4396|
00112c  e097              B        |L1.4702|
                  |L1.4398|
00112e  20a2              MOVS     r0,#0xa2
001130  f7fffffe          BL       LCD_WR_DATA
;;;766    		LCD_WR_REG(0xF2);    // 3Gamma Function Disable 
001134  20f2              MOVS     r0,#0xf2
001136  f7fffffe          BL       LCD_WR_REG
;;;767    		LCD_WR_DATA(0x00); 
00113a  2000              MOVS     r0,#0
00113c  f7fffffe          BL       LCD_WR_DATA
;;;768    		LCD_WR_REG(0x26);    //Gamma curve selected 
001140  2026              MOVS     r0,#0x26
001142  f7fffffe          BL       LCD_WR_REG
;;;769    		LCD_WR_DATA(0x01); 
001146  2001              MOVS     r0,#1
001148  f7fffffe          BL       LCD_WR_DATA
;;;770    		LCD_WR_REG(0xE0);    //Set Gamma 
00114c  20e0              MOVS     r0,#0xe0
00114e  f7fffffe          BL       LCD_WR_REG
;;;771    		LCD_WR_DATA(0x0F); 
001152  200f              MOVS     r0,#0xf
001154  f7fffffe          BL       LCD_WR_DATA
;;;772    		LCD_WR_DATA(0x2A); 
001158  202a              MOVS     r0,#0x2a
00115a  f7fffffe          BL       LCD_WR_DATA
;;;773    		LCD_WR_DATA(0x28); 
00115e  2028              MOVS     r0,#0x28
001160  f7fffffe          BL       LCD_WR_DATA
;;;774    		LCD_WR_DATA(0x08); 
001164  2008              MOVS     r0,#8
001166  f7fffffe          BL       LCD_WR_DATA
;;;775    		LCD_WR_DATA(0x0E); 
00116a  200e              MOVS     r0,#0xe
00116c  f7fffffe          BL       LCD_WR_DATA
;;;776    		LCD_WR_DATA(0x08); 
001170  2008              MOVS     r0,#8
001172  f7fffffe          BL       LCD_WR_DATA
;;;777    		LCD_WR_DATA(0x54); 
001176  2054              MOVS     r0,#0x54
001178  f7fffffe          BL       LCD_WR_DATA
;;;778    		LCD_WR_DATA(0XA9); 
00117c  20a9              MOVS     r0,#0xa9
00117e  f7fffffe          BL       LCD_WR_DATA
;;;779    		LCD_WR_DATA(0x43); 
001182  2043              MOVS     r0,#0x43
001184  f7fffffe          BL       LCD_WR_DATA
;;;780    		LCD_WR_DATA(0x0A); 
001188  200a              MOVS     r0,#0xa
00118a  f7fffffe          BL       LCD_WR_DATA
;;;781    		LCD_WR_DATA(0x0F); 
00118e  200f              MOVS     r0,#0xf
001190  f7fffffe          BL       LCD_WR_DATA
;;;782    		LCD_WR_DATA(0x00); 
001194  2000              MOVS     r0,#0
001196  f7fffffe          BL       LCD_WR_DATA
;;;783    		LCD_WR_DATA(0x00); 
00119a  2000              MOVS     r0,#0
00119c  f7fffffe          BL       LCD_WR_DATA
;;;784    		LCD_WR_DATA(0x00); 
0011a0  2000              MOVS     r0,#0
0011a2  f7fffffe          BL       LCD_WR_DATA
;;;785    		LCD_WR_DATA(0x00); 		 
0011a6  2000              MOVS     r0,#0
0011a8  f7fffffe          BL       LCD_WR_DATA
;;;786    		LCD_WR_REG(0XE1);    //Set Gamma 
0011ac  20e1              MOVS     r0,#0xe1
0011ae  f7fffffe          BL       LCD_WR_REG
;;;787    		LCD_WR_DATA(0x00); 
0011b2  2000              MOVS     r0,#0
0011b4  f7fffffe          BL       LCD_WR_DATA
;;;788    		LCD_WR_DATA(0x15); 
0011b8  2015              MOVS     r0,#0x15
0011ba  f7fffffe          BL       LCD_WR_DATA
;;;789    		LCD_WR_DATA(0x17); 
0011be  2017              MOVS     r0,#0x17
0011c0  f7fffffe          BL       LCD_WR_DATA
;;;790    		LCD_WR_DATA(0x07); 
0011c4  2007              MOVS     r0,#7
0011c6  f7fffffe          BL       LCD_WR_DATA
;;;791    		LCD_WR_DATA(0x11); 
0011ca  2011              MOVS     r0,#0x11
0011cc  f7fffffe          BL       LCD_WR_DATA
;;;792    		LCD_WR_DATA(0x06); 
0011d0  2006              MOVS     r0,#6
0011d2  f7fffffe          BL       LCD_WR_DATA
;;;793    		LCD_WR_DATA(0x2B); 
0011d6  202b              MOVS     r0,#0x2b
0011d8  f7fffffe          BL       LCD_WR_DATA
;;;794    		LCD_WR_DATA(0x56); 
0011dc  2056              MOVS     r0,#0x56
0011de  f7fffffe          BL       LCD_WR_DATA
;;;795    		LCD_WR_DATA(0x3C); 
0011e2  203c              MOVS     r0,#0x3c
0011e4  f7fffffe          BL       LCD_WR_DATA
;;;796    		LCD_WR_DATA(0x05); 
0011e8  2005              MOVS     r0,#5
0011ea  f7fffffe          BL       LCD_WR_DATA
;;;797    		LCD_WR_DATA(0x10); 
0011ee  2010              MOVS     r0,#0x10
0011f0  f7fffffe          BL       LCD_WR_DATA
;;;798    		LCD_WR_DATA(0x0F); 
0011f4  200f              MOVS     r0,#0xf
0011f6  f7fffffe          BL       LCD_WR_DATA
;;;799    		LCD_WR_DATA(0x3F); 
0011fa  203f              MOVS     r0,#0x3f
0011fc  f7fffffe          BL       LCD_WR_DATA
;;;800    		LCD_WR_DATA(0x3F); 
001200  203f              MOVS     r0,#0x3f
001202  f7fffffe          BL       LCD_WR_DATA
;;;801    		LCD_WR_DATA(0x0F); 
001206  200f              MOVS     r0,#0xf
001208  f7fffffe          BL       LCD_WR_DATA
;;;802    		LCD_WR_REG(0x2B); 
00120c  202b              MOVS     r0,#0x2b
00120e  f7fffffe          BL       LCD_WR_REG
;;;803    		LCD_WR_DATA(0x00);
001212  2000              MOVS     r0,#0
001214  f7fffffe          BL       LCD_WR_DATA
;;;804    		LCD_WR_DATA(0x00);
001218  2000              MOVS     r0,#0
00121a  f7fffffe          BL       LCD_WR_DATA
;;;805    		LCD_WR_DATA(0x01);
00121e  2001              MOVS     r0,#1
001220  f7fffffe          BL       LCD_WR_DATA
;;;806    		LCD_WR_DATA(0x3f);
001224  203f              MOVS     r0,#0x3f
001226  f7fffffe          BL       LCD_WR_DATA
;;;807    		LCD_WR_REG(0x2A); 
00122a  202a              MOVS     r0,#0x2a
00122c  f7fffffe          BL       LCD_WR_REG
;;;808    		LCD_WR_DATA(0x00);
001230  2000              MOVS     r0,#0
001232  f7fffffe          BL       LCD_WR_DATA
;;;809    		LCD_WR_DATA(0x00);
001236  2000              MOVS     r0,#0
001238  f7fffffe          BL       LCD_WR_DATA
;;;810    		LCD_WR_DATA(0x00);
00123c  2000              MOVS     r0,#0
00123e  f7fffffe          BL       LCD_WR_DATA
;;;811    		LCD_WR_DATA(0xef);	 
001242  20ef              MOVS     r0,#0xef
001244  f7fffffe          BL       LCD_WR_DATA
;;;812    		LCD_WR_REG(0x11); //Exit Sleep
001248  2011              MOVS     r0,#0x11
00124a  f7fffffe          BL       LCD_WR_REG
;;;813    		delay_ms(120);
00124e  2078              MOVS     r0,#0x78
001250  f7fffffe          BL       delay_ms
;;;814    		LCD_WR_REG(0x29); //display on	
001254  2029              MOVS     r0,#0x29
001256  f7fffffe          BL       LCD_WR_REG
                  |L1.4698|
00125a  f003b925          B.W      |L1.17576|
                  |L1.4702|
;;;815    	}else if(lcddev.id==0x6804) //6804初始化
00125e  4867              LDR      r0,|L1.5116|
001260  8880              LDRH     r0,[r0,#4]  ; lcddev
001262  f6460104          MOV      r1,#0x6804
001266  4288              CMP      r0,r1
001268  d17e              BNE      |L1.4968|
;;;816    	{
;;;817    		LCD_WR_REG(0X11);
00126a  2011              MOVS     r0,#0x11
00126c  f7fffffe          BL       LCD_WR_REG
;;;818    		delay_ms(20);
001270  2014              MOVS     r0,#0x14
001272  f7fffffe          BL       delay_ms
;;;819    		LCD_WR_REG(0XD0);//VCI1  VCL  VGH  VGL DDVDH VREG1OUT power amplitude setting
001276  20d0              MOVS     r0,#0xd0
001278  f7fffffe          BL       LCD_WR_REG
;;;820    		LCD_WR_DATA(0X07); 
00127c  2007              MOVS     r0,#7
00127e  f7fffffe          BL       LCD_WR_DATA
;;;821    		LCD_WR_DATA(0X42); 
001282  2042              MOVS     r0,#0x42
001284  f7fffffe          BL       LCD_WR_DATA
;;;822    		LCD_WR_DATA(0X1D); 
001288  201d              MOVS     r0,#0x1d
00128a  f7fffffe          BL       LCD_WR_DATA
;;;823    		LCD_WR_REG(0XD1);//VCOMH VCOM_AC amplitude setting
00128e  20d1              MOVS     r0,#0xd1
001290  f7fffffe          BL       LCD_WR_REG
;;;824    		LCD_WR_DATA(0X00);
001294  2000              MOVS     r0,#0
001296  f7fffffe          BL       LCD_WR_DATA
;;;825    		LCD_WR_DATA(0X1a);
00129a  201a              MOVS     r0,#0x1a
00129c  f7fffffe          BL       LCD_WR_DATA
;;;826    		LCD_WR_DATA(0X09); 
0012a0  2009              MOVS     r0,#9
0012a2  f7fffffe          BL       LCD_WR_DATA
;;;827    		LCD_WR_REG(0XD2);//Operational Amplifier Circuit Constant Current Adjust , charge pump frequency setting
0012a6  20d2              MOVS     r0,#0xd2
0012a8  f7fffffe          BL       LCD_WR_REG
;;;828    		LCD_WR_DATA(0X01);
0012ac  2001              MOVS     r0,#1
0012ae  f7fffffe          BL       LCD_WR_DATA
;;;829    		LCD_WR_DATA(0X22);
0012b2  2022              MOVS     r0,#0x22
0012b4  f7fffffe          BL       LCD_WR_DATA
;;;830    		LCD_WR_REG(0XC0);//REV SM GS 
0012b8  20c0              MOVS     r0,#0xc0
0012ba  f7fffffe          BL       LCD_WR_REG
;;;831    		LCD_WR_DATA(0X10);
0012be  2010              MOVS     r0,#0x10
0012c0  f7fffffe          BL       LCD_WR_DATA
;;;832    		LCD_WR_DATA(0X3B);
0012c4  203b              MOVS     r0,#0x3b
0012c6  f7fffffe          BL       LCD_WR_DATA
;;;833    		LCD_WR_DATA(0X00);
0012ca  2000              MOVS     r0,#0
0012cc  f7fffffe          BL       LCD_WR_DATA
;;;834    		LCD_WR_DATA(0X02);
0012d0  2002              MOVS     r0,#2
0012d2  f7fffffe          BL       LCD_WR_DATA
;;;835    		LCD_WR_DATA(0X11);
0012d6  2011              MOVS     r0,#0x11
0012d8  f7fffffe          BL       LCD_WR_DATA
;;;836    		
;;;837    		LCD_WR_REG(0XC5);// Frame rate setting = 72HZ  when setting 0x03
0012dc  20c5              MOVS     r0,#0xc5
0012de  f7fffffe          BL       LCD_WR_REG
;;;838    		LCD_WR_DATA(0X03);
0012e2  2003              MOVS     r0,#3
0012e4  f7fffffe          BL       LCD_WR_DATA
;;;839    		
;;;840    		LCD_WR_REG(0XC8);//Gamma setting
0012e8  20c8              MOVS     r0,#0xc8
0012ea  f7fffffe          BL       LCD_WR_REG
;;;841    		LCD_WR_DATA(0X00);
0012ee  2000              MOVS     r0,#0
0012f0  f7fffffe          BL       LCD_WR_DATA
;;;842    		LCD_WR_DATA(0X25);
0012f4  2025              MOVS     r0,#0x25
0012f6  f7fffffe          BL       LCD_WR_DATA
;;;843    		LCD_WR_DATA(0X21);
0012fa  2021              MOVS     r0,#0x21
0012fc  f7fffffe          BL       LCD_WR_DATA
;;;844    		LCD_WR_DATA(0X05);
001300  2005              MOVS     r0,#5
001302  f7fffffe          BL       LCD_WR_DATA
;;;845    		LCD_WR_DATA(0X00);
001306  2000              MOVS     r0,#0
001308  f7fffffe          BL       LCD_WR_DATA
;;;846    		LCD_WR_DATA(0X0a);
00130c  200a              MOVS     r0,#0xa
00130e  f7fffffe          BL       LCD_WR_DATA
;;;847    		LCD_WR_DATA(0X65);
001312  2065              MOVS     r0,#0x65
001314  f7fffffe          BL       LCD_WR_DATA
;;;848    		LCD_WR_DATA(0X25);
001318  2025              MOVS     r0,#0x25
00131a  f7fffffe          BL       LCD_WR_DATA
;;;849    		LCD_WR_DATA(0X77);
00131e  2077              MOVS     r0,#0x77
001320  f7fffffe          BL       LCD_WR_DATA
;;;850    		LCD_WR_DATA(0X50);
001324  2050              MOVS     r0,#0x50
001326  f7fffffe          BL       LCD_WR_DATA
;;;851    		LCD_WR_DATA(0X0f);
00132a  200f              MOVS     r0,#0xf
00132c  f7fffffe          BL       LCD_WR_DATA
;;;852    		LCD_WR_DATA(0X00);	  
001330  2000              MOVS     r0,#0
001332  f7fffffe          BL       LCD_WR_DATA
;;;853    						  
;;;854       		LCD_WR_REG(0XF8);
001336  20f8              MOVS     r0,#0xf8
001338  f7fffffe          BL       LCD_WR_REG
;;;855    		LCD_WR_DATA(0X01);	  
00133c  2001              MOVS     r0,#1
00133e  f7fffffe          BL       LCD_WR_DATA
;;;856    
;;;857     		LCD_WR_REG(0XFE);
001342  20fe              MOVS     r0,#0xfe
001344  f7fffffe          BL       LCD_WR_REG
;;;858     		LCD_WR_DATA(0X00);
001348  2000              MOVS     r0,#0
00134a  f7fffffe          BL       LCD_WR_DATA
;;;859     		LCD_WR_DATA(0X02);
00134e  2002              MOVS     r0,#2
001350  f7fffffe          BL       LCD_WR_DATA
;;;860    		
;;;861    		LCD_WR_REG(0X20);//Exit invert mode
001354  2020              MOVS     r0,#0x20
001356  f7fffffe          BL       LCD_WR_REG
;;;862    
;;;863    		LCD_WR_REG(0X36);
00135a  2036              MOVS     r0,#0x36
00135c  f7fffffe          BL       LCD_WR_REG
;;;864    		LCD_WR_DATA(0X08);//原来是a
001360  2008              MOVS     r0,#8
001362  f7fffffe          BL       LCD_WR_DATA
;;;865    		
;;;866    		LCD_WR_REG(0X3A);
001366  e000              B        |L1.4970|
                  |L1.4968|
001368  e02a              B        |L1.5056|
                  |L1.4970|
00136a  203a              MOVS     r0,#0x3a
00136c  f7fffffe          BL       LCD_WR_REG
;;;867    		LCD_WR_DATA(0X55);//16位模式	  
001370  2055              MOVS     r0,#0x55
001372  f7fffffe          BL       LCD_WR_DATA
;;;868    		LCD_WR_REG(0X2B);
001376  202b              MOVS     r0,#0x2b
001378  f7fffffe          BL       LCD_WR_REG
;;;869    		LCD_WR_DATA(0X00);
00137c  2000              MOVS     r0,#0
00137e  f7fffffe          BL       LCD_WR_DATA
;;;870    		LCD_WR_DATA(0X00);
001382  2000              MOVS     r0,#0
001384  f7fffffe          BL       LCD_WR_DATA
;;;871    		LCD_WR_DATA(0X01);
001388  2001              MOVS     r0,#1
00138a  f7fffffe          BL       LCD_WR_DATA
;;;872    		LCD_WR_DATA(0X3F);
00138e  203f              MOVS     r0,#0x3f
001390  f7fffffe          BL       LCD_WR_DATA
;;;873    		
;;;874    		LCD_WR_REG(0X2A);
001394  202a              MOVS     r0,#0x2a
001396  f7fffffe          BL       LCD_WR_REG
;;;875    		LCD_WR_DATA(0X00);
00139a  2000              MOVS     r0,#0
00139c  f7fffffe          BL       LCD_WR_DATA
;;;876    		LCD_WR_DATA(0X00);
0013a0  2000              MOVS     r0,#0
0013a2  f7fffffe          BL       LCD_WR_DATA
;;;877    		LCD_WR_DATA(0X01);
0013a6  2001              MOVS     r0,#1
0013a8  f7fffffe          BL       LCD_WR_DATA
;;;878    		LCD_WR_DATA(0XDF);
0013ac  20df              MOVS     r0,#0xdf
0013ae  f7fffffe          BL       LCD_WR_DATA
;;;879    		delay_ms(120);
0013b2  2078              MOVS     r0,#0x78
0013b4  f7fffffe          BL       delay_ms
;;;880    		LCD_WR_REG(0X29); 	 
0013b8  2029              MOVS     r0,#0x29
0013ba  f7fffffe          BL       LCD_WR_REG
0013be  e74c              B        |L1.4698|
                  |L1.5056|
;;;881     	}else if(lcddev.id==0x5310)
0013c0  480e              LDR      r0,|L1.5116|
0013c2  8880              LDRH     r0,[r0,#4]  ; lcddev
0013c4  f2453110          MOV      r1,#0x5310
0013c8  4288              CMP      r0,r1
0013ca  f0408784          BNE.W    |L1.8918|
;;;882    	{ 
;;;883    		LCD_WR_REG(0xED);
0013ce  20ed              MOVS     r0,#0xed
0013d0  f7fffffe          BL       LCD_WR_REG
;;;884    		LCD_WR_DATA(0x01);
0013d4  2001              MOVS     r0,#1
0013d6  f7fffffe          BL       LCD_WR_DATA
;;;885    		LCD_WR_DATA(0xFE);
0013da  20fe              MOVS     r0,#0xfe
0013dc  f7fffffe          BL       LCD_WR_DATA
;;;886    
;;;887    		LCD_WR_REG(0xEE);
0013e0  20ee              MOVS     r0,#0xee
0013e2  f7fffffe          BL       LCD_WR_REG
;;;888    		LCD_WR_DATA(0xDE);
0013e6  20de              MOVS     r0,#0xde
0013e8  f7fffffe          BL       LCD_WR_DATA
;;;889    		LCD_WR_DATA(0x21);
0013ec  2021              MOVS     r0,#0x21
0013ee  f7fffffe          BL       LCD_WR_DATA
;;;890    
;;;891    		LCD_WR_REG(0xF1);
0013f2  20f1              MOVS     r0,#0xf1
0013f4  f7fffffe          BL       LCD_WR_REG
;;;892    		LCD_WR_DATA(0x01);
0013f8  2001              MOVS     r0,#1
0013fa  e009              B        |L1.5136|
                  |L1.5116|
                          DCD      lcddev
                  |L1.5120|
001400  204c4344          DCB      " LCD ID:%x\r\n",0
001404  2049443a
001408  25780d0a
00140c  00      
00140d  00                DCB      0
00140e  00                DCB      0
00140f  00                DCB      0
                  |L1.5136|
001410  f7fffffe          BL       LCD_WR_DATA
;;;893    		LCD_WR_REG(0xDF);
001414  20df              MOVS     r0,#0xdf
001416  f7fffffe          BL       LCD_WR_REG
;;;894    		LCD_WR_DATA(0x10);
00141a  2010              MOVS     r0,#0x10
00141c  f7fffffe          BL       LCD_WR_DATA
;;;895    
;;;896    		//VCOMvoltage//
;;;897    		LCD_WR_REG(0xC4);
001420  20c4              MOVS     r0,#0xc4
001422  f7fffffe          BL       LCD_WR_REG
;;;898    		LCD_WR_DATA(0x8F);	  //5f
001426  208f              MOVS     r0,#0x8f
001428  f7fffffe          BL       LCD_WR_DATA
;;;899    
;;;900    		LCD_WR_REG(0xC6);
00142c  20c6              MOVS     r0,#0xc6
00142e  f7fffffe          BL       LCD_WR_REG
;;;901    		LCD_WR_DATA(0x00);
001432  2000              MOVS     r0,#0
001434  f7fffffe          BL       LCD_WR_DATA
;;;902    		LCD_WR_DATA(0xE2);
001438  20e2              MOVS     r0,#0xe2
00143a  f7fffffe          BL       LCD_WR_DATA
;;;903    		LCD_WR_DATA(0xE2);
00143e  20e2              MOVS     r0,#0xe2
001440  f7fffffe          BL       LCD_WR_DATA
;;;904    		LCD_WR_DATA(0xE2);
001444  20e2              MOVS     r0,#0xe2
001446  f7fffffe          BL       LCD_WR_DATA
;;;905    		LCD_WR_REG(0xBF);
00144a  20bf              MOVS     r0,#0xbf
00144c  f7fffffe          BL       LCD_WR_REG
;;;906    		LCD_WR_DATA(0xAA);
001450  20aa              MOVS     r0,#0xaa
001452  f7fffffe          BL       LCD_WR_DATA
;;;907    
;;;908    		LCD_WR_REG(0xB0);
001456  20b0              MOVS     r0,#0xb0
001458  f7fffffe          BL       LCD_WR_REG
;;;909    		LCD_WR_DATA(0x0D);
00145c  200d              MOVS     r0,#0xd
00145e  f7fffffe          BL       LCD_WR_DATA
;;;910    		LCD_WR_DATA(0x00);
001462  2000              MOVS     r0,#0
001464  f7fffffe          BL       LCD_WR_DATA
;;;911    		LCD_WR_DATA(0x0D);
001468  200d              MOVS     r0,#0xd
00146a  f7fffffe          BL       LCD_WR_DATA
;;;912    		LCD_WR_DATA(0x00);
00146e  2000              MOVS     r0,#0
001470  f7fffffe          BL       LCD_WR_DATA
;;;913    		LCD_WR_DATA(0x11);
001474  2011              MOVS     r0,#0x11
001476  f7fffffe          BL       LCD_WR_DATA
;;;914    		LCD_WR_DATA(0x00);
00147a  2000              MOVS     r0,#0
00147c  f7fffffe          BL       LCD_WR_DATA
;;;915    		LCD_WR_DATA(0x19);
001480  2019              MOVS     r0,#0x19
001482  f7fffffe          BL       LCD_WR_DATA
;;;916    		LCD_WR_DATA(0x00);
001486  2000              MOVS     r0,#0
001488  f7fffffe          BL       LCD_WR_DATA
;;;917    		LCD_WR_DATA(0x21);
00148c  2021              MOVS     r0,#0x21
00148e  f7fffffe          BL       LCD_WR_DATA
;;;918    		LCD_WR_DATA(0x00);
001492  2000              MOVS     r0,#0
001494  f7fffffe          BL       LCD_WR_DATA
;;;919    		LCD_WR_DATA(0x2D);
001498  202d              MOVS     r0,#0x2d
00149a  f7fffffe          BL       LCD_WR_DATA
;;;920    		LCD_WR_DATA(0x00);
00149e  2000              MOVS     r0,#0
0014a0  f7fffffe          BL       LCD_WR_DATA
;;;921    		LCD_WR_DATA(0x3D);
0014a4  203d              MOVS     r0,#0x3d
0014a6  f7fffffe          BL       LCD_WR_DATA
;;;922    		LCD_WR_DATA(0x00);
0014aa  2000              MOVS     r0,#0
0014ac  f7fffffe          BL       LCD_WR_DATA
;;;923    		LCD_WR_DATA(0x5D);
0014b0  205d              MOVS     r0,#0x5d
0014b2  f7fffffe          BL       LCD_WR_DATA
;;;924    		LCD_WR_DATA(0x00);
0014b6  2000              MOVS     r0,#0
0014b8  f7fffffe          BL       LCD_WR_DATA
;;;925    		LCD_WR_DATA(0x5D);
0014bc  205d              MOVS     r0,#0x5d
0014be  f7fffffe          BL       LCD_WR_DATA
;;;926    		LCD_WR_DATA(0x00);
0014c2  2000              MOVS     r0,#0
0014c4  f7fffffe          BL       LCD_WR_DATA
;;;927    
;;;928    		LCD_WR_REG(0xB1);
0014c8  20b1              MOVS     r0,#0xb1
0014ca  f7fffffe          BL       LCD_WR_REG
;;;929    		LCD_WR_DATA(0x80);
0014ce  2080              MOVS     r0,#0x80
0014d0  f7fffffe          BL       LCD_WR_DATA
;;;930    		LCD_WR_DATA(0x00);
0014d4  2000              MOVS     r0,#0
0014d6  f7fffffe          BL       LCD_WR_DATA
;;;931    		LCD_WR_DATA(0x8B);
0014da  208b              MOVS     r0,#0x8b
0014dc  f7fffffe          BL       LCD_WR_DATA
;;;932    		LCD_WR_DATA(0x00);
0014e0  2000              MOVS     r0,#0
0014e2  f7fffffe          BL       LCD_WR_DATA
;;;933    		LCD_WR_DATA(0x96);
0014e6  2096              MOVS     r0,#0x96
0014e8  f7fffffe          BL       LCD_WR_DATA
;;;934    		LCD_WR_DATA(0x00);
0014ec  2000              MOVS     r0,#0
0014ee  f7fffffe          BL       LCD_WR_DATA
;;;935    
;;;936    		LCD_WR_REG(0xB2);
0014f2  20b2              MOVS     r0,#0xb2
0014f4  f7fffffe          BL       LCD_WR_REG
;;;937    		LCD_WR_DATA(0x00);
0014f8  2000              MOVS     r0,#0
0014fa  f7fffffe          BL       LCD_WR_DATA
;;;938    		LCD_WR_DATA(0x00);
0014fe  2000              MOVS     r0,#0
001500  f7fffffe          BL       LCD_WR_DATA
;;;939    		LCD_WR_DATA(0x02);
001504  2002              MOVS     r0,#2
001506  f7fffffe          BL       LCD_WR_DATA
;;;940    		LCD_WR_DATA(0x00);
00150a  2000              MOVS     r0,#0
00150c  f7fffffe          BL       LCD_WR_DATA
;;;941    		LCD_WR_DATA(0x03);
001510  2003              MOVS     r0,#3
001512  f7fffffe          BL       LCD_WR_DATA
;;;942    		LCD_WR_DATA(0x00);
001516  2000              MOVS     r0,#0
001518  f7fffffe          BL       LCD_WR_DATA
;;;943    
;;;944    		LCD_WR_REG(0xB3);
00151c  20b3              MOVS     r0,#0xb3
00151e  f7fffffe          BL       LCD_WR_REG
;;;945    		LCD_WR_DATA(0x00);
001522  2000              MOVS     r0,#0
001524  f7fffffe          BL       LCD_WR_DATA
;;;946    		LCD_WR_DATA(0x00);
001528  2000              MOVS     r0,#0
00152a  f7fffffe          BL       LCD_WR_DATA
;;;947    		LCD_WR_DATA(0x00);
00152e  2000              MOVS     r0,#0
001530  f7fffffe          BL       LCD_WR_DATA
;;;948    		LCD_WR_DATA(0x00);
001534  2000              MOVS     r0,#0
001536  f7fffffe          BL       LCD_WR_DATA
;;;949    		LCD_WR_DATA(0x00);
00153a  2000              MOVS     r0,#0
00153c  f7fffffe          BL       LCD_WR_DATA
;;;950    		LCD_WR_DATA(0x00);
001540  2000              MOVS     r0,#0
001542  f7fffffe          BL       LCD_WR_DATA
;;;951    		LCD_WR_DATA(0x00);
001546  2000              MOVS     r0,#0
001548  f7fffffe          BL       LCD_WR_DATA
;;;952    		LCD_WR_DATA(0x00);
00154c  2000              MOVS     r0,#0
00154e  f7fffffe          BL       LCD_WR_DATA
;;;953    		LCD_WR_DATA(0x00);
001552  2000              MOVS     r0,#0
001554  f7fffffe          BL       LCD_WR_DATA
;;;954    		LCD_WR_DATA(0x00);
001558  2000              MOVS     r0,#0
00155a  f7fffffe          BL       LCD_WR_DATA
;;;955    		LCD_WR_DATA(0x00);
00155e  2000              MOVS     r0,#0
001560  f7fffffe          BL       LCD_WR_DATA
;;;956    		LCD_WR_DATA(0x00);
001564  2000              MOVS     r0,#0
001566  f7fffffe          BL       LCD_WR_DATA
;;;957    		LCD_WR_DATA(0x00);
00156a  2000              MOVS     r0,#0
00156c  f7fffffe          BL       LCD_WR_DATA
;;;958    		LCD_WR_DATA(0x00);
001570  2000              MOVS     r0,#0
001572  f7fffffe          BL       LCD_WR_DATA
;;;959    		LCD_WR_DATA(0x00);
001576  2000              MOVS     r0,#0
001578  f7fffffe          BL       LCD_WR_DATA
;;;960    		LCD_WR_DATA(0x00);
00157c  2000              MOVS     r0,#0
00157e  f7fffffe          BL       LCD_WR_DATA
;;;961    		LCD_WR_DATA(0x00);
001582  2000              MOVS     r0,#0
001584  f7fffffe          BL       LCD_WR_DATA
;;;962    		LCD_WR_DATA(0x00);
001588  2000              MOVS     r0,#0
00158a  f7fffffe          BL       LCD_WR_DATA
;;;963    		LCD_WR_DATA(0x00);
00158e  2000              MOVS     r0,#0
001590  f7fffffe          BL       LCD_WR_DATA
;;;964    		LCD_WR_DATA(0x00);
001594  2000              MOVS     r0,#0
001596  f7fffffe          BL       LCD_WR_DATA
;;;965    		LCD_WR_DATA(0x00);
00159a  2000              MOVS     r0,#0
00159c  f7fffffe          BL       LCD_WR_DATA
;;;966    		LCD_WR_DATA(0x00);
0015a0  2000              MOVS     r0,#0
0015a2  f7fffffe          BL       LCD_WR_DATA
;;;967    		LCD_WR_DATA(0x00);
0015a6  2000              MOVS     r0,#0
0015a8  f7fffffe          BL       LCD_WR_DATA
;;;968    		LCD_WR_DATA(0x00);
0015ac  2000              MOVS     r0,#0
0015ae  f7fffffe          BL       LCD_WR_DATA
;;;969    
;;;970    		LCD_WR_REG(0xB4);
0015b2  20b4              MOVS     r0,#0xb4
0015b4  f7fffffe          BL       LCD_WR_REG
;;;971    		LCD_WR_DATA(0x8B);
0015b8  208b              MOVS     r0,#0x8b
0015ba  f7fffffe          BL       LCD_WR_DATA
;;;972    		LCD_WR_DATA(0x00);
0015be  2000              MOVS     r0,#0
0015c0  f7fffffe          BL       LCD_WR_DATA
;;;973    		LCD_WR_DATA(0x96);
0015c4  2096              MOVS     r0,#0x96
0015c6  f7fffffe          BL       LCD_WR_DATA
;;;974    		LCD_WR_DATA(0x00);
0015ca  2000              MOVS     r0,#0
0015cc  f7fffffe          BL       LCD_WR_DATA
;;;975    		LCD_WR_DATA(0xA1);
0015d0  20a1              MOVS     r0,#0xa1
0015d2  f7fffffe          BL       LCD_WR_DATA
;;;976    		LCD_WR_DATA(0x00);
0015d6  2000              MOVS     r0,#0
0015d8  f7fffffe          BL       LCD_WR_DATA
;;;977    
;;;978    		LCD_WR_REG(0xB5);
0015dc  20b5              MOVS     r0,#0xb5
0015de  f7fffffe          BL       LCD_WR_REG
;;;979    		LCD_WR_DATA(0x02);
0015e2  2002              MOVS     r0,#2
0015e4  f7fffffe          BL       LCD_WR_DATA
;;;980    		LCD_WR_DATA(0x00);
0015e8  2000              MOVS     r0,#0
0015ea  f7fffffe          BL       LCD_WR_DATA
;;;981    		LCD_WR_DATA(0x03);
0015ee  2003              MOVS     r0,#3
0015f0  f7fffffe          BL       LCD_WR_DATA
;;;982    		LCD_WR_DATA(0x00);
0015f4  2000              MOVS     r0,#0
0015f6  f7fffffe          BL       LCD_WR_DATA
;;;983    		LCD_WR_DATA(0x04);
0015fa  2004              MOVS     r0,#4
0015fc  f7fffffe          BL       LCD_WR_DATA
;;;984    		LCD_WR_DATA(0x00);
001600  2000              MOVS     r0,#0
001602  f7fffffe          BL       LCD_WR_DATA
;;;985    
;;;986    		LCD_WR_REG(0xB6);
001606  20b6              MOVS     r0,#0xb6
001608  f7fffffe          BL       LCD_WR_REG
;;;987    		LCD_WR_DATA(0x00);
00160c  2000              MOVS     r0,#0
00160e  f7fffffe          BL       LCD_WR_DATA
;;;988    		LCD_WR_DATA(0x00);
001612  2000              MOVS     r0,#0
001614  f7fffffe          BL       LCD_WR_DATA
;;;989    
;;;990    		LCD_WR_REG(0xB7);
001618  20b7              MOVS     r0,#0xb7
00161a  f7fffffe          BL       LCD_WR_REG
;;;991    		LCD_WR_DATA(0x00);
00161e  2000              MOVS     r0,#0
001620  f7fffffe          BL       LCD_WR_DATA
;;;992    		LCD_WR_DATA(0x00);
001624  2000              MOVS     r0,#0
001626  f7fffffe          BL       LCD_WR_DATA
;;;993    		LCD_WR_DATA(0x3F);
00162a  203f              MOVS     r0,#0x3f
00162c  f7fffffe          BL       LCD_WR_DATA
;;;994    		LCD_WR_DATA(0x00);
001630  2000              MOVS     r0,#0
001632  f7fffffe          BL       LCD_WR_DATA
;;;995    		LCD_WR_DATA(0x5E);
001636  205e              MOVS     r0,#0x5e
001638  f7fffffe          BL       LCD_WR_DATA
;;;996    		LCD_WR_DATA(0x00);
00163c  2000              MOVS     r0,#0
00163e  f7fffffe          BL       LCD_WR_DATA
;;;997    		LCD_WR_DATA(0x64);
001642  2064              MOVS     r0,#0x64
001644  f7fffffe          BL       LCD_WR_DATA
;;;998    		LCD_WR_DATA(0x00);
001648  2000              MOVS     r0,#0
00164a  f7fffffe          BL       LCD_WR_DATA
;;;999    		LCD_WR_DATA(0x8C);
00164e  208c              MOVS     r0,#0x8c
001650  f7fffffe          BL       LCD_WR_DATA
;;;1000   		LCD_WR_DATA(0x00);
001654  2000              MOVS     r0,#0
001656  f7fffffe          BL       LCD_WR_DATA
;;;1001   		LCD_WR_DATA(0xAC);
00165a  20ac              MOVS     r0,#0xac
00165c  f7fffffe          BL       LCD_WR_DATA
;;;1002   		LCD_WR_DATA(0x00);
001660  2000              MOVS     r0,#0
001662  f7fffffe          BL       LCD_WR_DATA
;;;1003   		LCD_WR_DATA(0xDC);
001666  20dc              MOVS     r0,#0xdc
001668  f7fffffe          BL       LCD_WR_DATA
;;;1004   		LCD_WR_DATA(0x00);
00166c  2000              MOVS     r0,#0
00166e  f7fffffe          BL       LCD_WR_DATA
;;;1005   		LCD_WR_DATA(0x70);
001672  2070              MOVS     r0,#0x70
001674  f7fffffe          BL       LCD_WR_DATA
;;;1006   		LCD_WR_DATA(0x00);
001678  2000              MOVS     r0,#0
00167a  f7fffffe          BL       LCD_WR_DATA
;;;1007   		LCD_WR_DATA(0x90);
00167e  2090              MOVS     r0,#0x90
001680  f7fffffe          BL       LCD_WR_DATA
;;;1008   		LCD_WR_DATA(0x00);
001684  2000              MOVS     r0,#0
001686  f7fffffe          BL       LCD_WR_DATA
;;;1009   		LCD_WR_DATA(0xEB);
00168a  20eb              MOVS     r0,#0xeb
00168c  f7fffffe          BL       LCD_WR_DATA
;;;1010   		LCD_WR_DATA(0x00);
001690  2000              MOVS     r0,#0
001692  f7fffffe          BL       LCD_WR_DATA
;;;1011   		LCD_WR_DATA(0xDC);
001696  20dc              MOVS     r0,#0xdc
001698  f7fffffe          BL       LCD_WR_DATA
;;;1012   		LCD_WR_DATA(0x00);
00169c  2000              MOVS     r0,#0
00169e  f7fffffe          BL       LCD_WR_DATA
;;;1013   
;;;1014   		LCD_WR_REG(0xB8);
0016a2  20b8              MOVS     r0,#0xb8
0016a4  f7fffffe          BL       LCD_WR_REG
;;;1015   		LCD_WR_DATA(0x00);
0016a8  2000              MOVS     r0,#0
0016aa  f7fffffe          BL       LCD_WR_DATA
;;;1016   		LCD_WR_DATA(0x00);
0016ae  2000              MOVS     r0,#0
0016b0  f7fffffe          BL       LCD_WR_DATA
;;;1017   		LCD_WR_DATA(0x00);
0016b4  2000              MOVS     r0,#0
0016b6  f7fffffe          BL       LCD_WR_DATA
;;;1018   		LCD_WR_DATA(0x00);
0016ba  2000              MOVS     r0,#0
0016bc  f7fffffe          BL       LCD_WR_DATA
;;;1019   		LCD_WR_DATA(0x00);
0016c0  2000              MOVS     r0,#0
0016c2  f7fffffe          BL       LCD_WR_DATA
;;;1020   		LCD_WR_DATA(0x00);
0016c6  2000              MOVS     r0,#0
0016c8  f7fffffe          BL       LCD_WR_DATA
;;;1021   		LCD_WR_DATA(0x00);
0016cc  2000              MOVS     r0,#0
0016ce  f7fffffe          BL       LCD_WR_DATA
;;;1022   		LCD_WR_DATA(0x00);
0016d2  2000              MOVS     r0,#0
0016d4  f7fffffe          BL       LCD_WR_DATA
;;;1023   
;;;1024   		LCD_WR_REG(0xBA);
0016d8  20ba              MOVS     r0,#0xba
0016da  f7fffffe          BL       LCD_WR_REG
;;;1025   		LCD_WR_DATA(0x24);
0016de  2024              MOVS     r0,#0x24
0016e0  f7fffffe          BL       LCD_WR_DATA
;;;1026   		LCD_WR_DATA(0x00);
0016e4  2000              MOVS     r0,#0
0016e6  f7fffffe          BL       LCD_WR_DATA
;;;1027   		LCD_WR_DATA(0x00);
0016ea  2000              MOVS     r0,#0
0016ec  f7fffffe          BL       LCD_WR_DATA
;;;1028   		LCD_WR_DATA(0x00);
0016f0  2000              MOVS     r0,#0
0016f2  f7fffffe          BL       LCD_WR_DATA
;;;1029   
;;;1030   		LCD_WR_REG(0xC1);
0016f6  20c1              MOVS     r0,#0xc1
0016f8  f7fffffe          BL       LCD_WR_REG
;;;1031   		LCD_WR_DATA(0x20);
0016fc  2020              MOVS     r0,#0x20
0016fe  f7fffffe          BL       LCD_WR_DATA
;;;1032   		LCD_WR_DATA(0x00);
001702  2000              MOVS     r0,#0
001704  f7fffffe          BL       LCD_WR_DATA
;;;1033   		LCD_WR_DATA(0x54);
001708  2054              MOVS     r0,#0x54
00170a  f7fffffe          BL       LCD_WR_DATA
;;;1034   		LCD_WR_DATA(0x00);
00170e  2000              MOVS     r0,#0
001710  f7fffffe          BL       LCD_WR_DATA
;;;1035   		LCD_WR_DATA(0xFF);
001714  20ff              MOVS     r0,#0xff
001716  f7fffffe          BL       LCD_WR_DATA
;;;1036   		LCD_WR_DATA(0x00);
00171a  2000              MOVS     r0,#0
00171c  f7fffffe          BL       LCD_WR_DATA
;;;1037   
;;;1038   		LCD_WR_REG(0xC2);
001720  20c2              MOVS     r0,#0xc2
001722  f7fffffe          BL       LCD_WR_REG
;;;1039   		LCD_WR_DATA(0x0A);
001726  200a              MOVS     r0,#0xa
001728  f7fffffe          BL       LCD_WR_DATA
;;;1040   		LCD_WR_DATA(0x00);
00172c  2000              MOVS     r0,#0
00172e  f7fffffe          BL       LCD_WR_DATA
;;;1041   		LCD_WR_DATA(0x04);
001732  2004              MOVS     r0,#4
001734  f7fffffe          BL       LCD_WR_DATA
;;;1042   		LCD_WR_DATA(0x00);
001738  2000              MOVS     r0,#0
00173a  f7fffffe          BL       LCD_WR_DATA
;;;1043   
;;;1044   		LCD_WR_REG(0xC3);
00173e  20c3              MOVS     r0,#0xc3
001740  f7fffffe          BL       LCD_WR_REG
;;;1045   		LCD_WR_DATA(0x3C);
001744  203c              MOVS     r0,#0x3c
001746  f7fffffe          BL       LCD_WR_DATA
;;;1046   		LCD_WR_DATA(0x00);
00174a  2000              MOVS     r0,#0
00174c  f7fffffe          BL       LCD_WR_DATA
;;;1047   		LCD_WR_DATA(0x3A);
001750  203a              MOVS     r0,#0x3a
001752  f7fffffe          BL       LCD_WR_DATA
;;;1048   		LCD_WR_DATA(0x00);
001756  2000              MOVS     r0,#0
001758  f7fffffe          BL       LCD_WR_DATA
;;;1049   		LCD_WR_DATA(0x39);
00175c  2039              MOVS     r0,#0x39
00175e  f7fffffe          BL       LCD_WR_DATA
;;;1050   		LCD_WR_DATA(0x00);
001762  2000              MOVS     r0,#0
001764  f7fffffe          BL       LCD_WR_DATA
;;;1051   		LCD_WR_DATA(0x37);
001768  2037              MOVS     r0,#0x37
00176a  f7fffffe          BL       LCD_WR_DATA
;;;1052   		LCD_WR_DATA(0x00);
00176e  2000              MOVS     r0,#0
001770  f7fffffe          BL       LCD_WR_DATA
;;;1053   		LCD_WR_DATA(0x3C);
001774  203c              MOVS     r0,#0x3c
001776  f7fffffe          BL       LCD_WR_DATA
;;;1054   		LCD_WR_DATA(0x00);
00177a  2000              MOVS     r0,#0
00177c  f7fffffe          BL       LCD_WR_DATA
;;;1055   		LCD_WR_DATA(0x36);
001780  2036              MOVS     r0,#0x36
001782  f7fffffe          BL       LCD_WR_DATA
;;;1056   		LCD_WR_DATA(0x00);
001786  2000              MOVS     r0,#0
001788  f7fffffe          BL       LCD_WR_DATA
;;;1057   		LCD_WR_DATA(0x32);
00178c  2032              MOVS     r0,#0x32
00178e  f7fffffe          BL       LCD_WR_DATA
;;;1058   		LCD_WR_DATA(0x00);
001792  2000              MOVS     r0,#0
001794  f7fffffe          BL       LCD_WR_DATA
;;;1059   		LCD_WR_DATA(0x2F);
001798  202f              MOVS     r0,#0x2f
00179a  f7fffffe          BL       LCD_WR_DATA
;;;1060   		LCD_WR_DATA(0x00);
00179e  2000              MOVS     r0,#0
0017a0  f7fffffe          BL       LCD_WR_DATA
;;;1061   		LCD_WR_DATA(0x2C);
0017a4  202c              MOVS     r0,#0x2c
0017a6  f7fffffe          BL       LCD_WR_DATA
;;;1062   		LCD_WR_DATA(0x00);
0017aa  2000              MOVS     r0,#0
0017ac  f7fffffe          BL       LCD_WR_DATA
;;;1063   		LCD_WR_DATA(0x29);
0017b0  2029              MOVS     r0,#0x29
0017b2  f7fffffe          BL       LCD_WR_DATA
;;;1064   		LCD_WR_DATA(0x00);
0017b6  2000              MOVS     r0,#0
0017b8  f7fffffe          BL       LCD_WR_DATA
;;;1065   		LCD_WR_DATA(0x26);
0017bc  2026              MOVS     r0,#0x26
0017be  f7fffffe          BL       LCD_WR_DATA
;;;1066   		LCD_WR_DATA(0x00);
0017c2  2000              MOVS     r0,#0
0017c4  f7fffffe          BL       LCD_WR_DATA
;;;1067   		LCD_WR_DATA(0x24);
0017c8  2024              MOVS     r0,#0x24
0017ca  f7fffffe          BL       LCD_WR_DATA
;;;1068   		LCD_WR_DATA(0x00);
0017ce  2000              MOVS     r0,#0
0017d0  f7fffffe          BL       LCD_WR_DATA
;;;1069   		LCD_WR_DATA(0x24);
0017d4  2024              MOVS     r0,#0x24
0017d6  f7fffffe          BL       LCD_WR_DATA
;;;1070   		LCD_WR_DATA(0x00);
0017da  2000              MOVS     r0,#0
0017dc  f7fffffe          BL       LCD_WR_DATA
;;;1071   		LCD_WR_DATA(0x23);
0017e0  2023              MOVS     r0,#0x23
0017e2  f7fffffe          BL       LCD_WR_DATA
;;;1072   		LCD_WR_DATA(0x00);
0017e6  2000              MOVS     r0,#0
0017e8  f7fffffe          BL       LCD_WR_DATA
;;;1073   		LCD_WR_DATA(0x3C);
0017ec  203c              MOVS     r0,#0x3c
0017ee  f7fffffe          BL       LCD_WR_DATA
;;;1074   		LCD_WR_DATA(0x00);
0017f2  2000              MOVS     r0,#0
0017f4  f7fffffe          BL       LCD_WR_DATA
;;;1075   		LCD_WR_DATA(0x36);
0017f8  2036              MOVS     r0,#0x36
0017fa  f7fffffe          BL       LCD_WR_DATA
;;;1076   		LCD_WR_DATA(0x00);
0017fe  2000              MOVS     r0,#0
001800  f7fffffe          BL       LCD_WR_DATA
;;;1077   		LCD_WR_DATA(0x32);
001804  2032              MOVS     r0,#0x32
001806  f7fffffe          BL       LCD_WR_DATA
;;;1078   		LCD_WR_DATA(0x00);
00180a  2000              MOVS     r0,#0
00180c  f7fffffe          BL       LCD_WR_DATA
;;;1079   		LCD_WR_DATA(0x2F);
001810  202f              MOVS     r0,#0x2f
001812  f7fffffe          BL       LCD_WR_DATA
;;;1080   		LCD_WR_DATA(0x00);
001816  2000              MOVS     r0,#0
001818  f7fffffe          BL       LCD_WR_DATA
;;;1081   		LCD_WR_DATA(0x2C);
00181c  202c              MOVS     r0,#0x2c
00181e  f7fffffe          BL       LCD_WR_DATA
;;;1082   		LCD_WR_DATA(0x00);
001822  2000              MOVS     r0,#0
001824  f7fffffe          BL       LCD_WR_DATA
;;;1083   		LCD_WR_DATA(0x29);
001828  2029              MOVS     r0,#0x29
00182a  f7fffffe          BL       LCD_WR_DATA
;;;1084   		LCD_WR_DATA(0x00);
00182e  2000              MOVS     r0,#0
001830  f7fffffe          BL       LCD_WR_DATA
;;;1085   		LCD_WR_DATA(0x26);
001834  2026              MOVS     r0,#0x26
001836  f7fffffe          BL       LCD_WR_DATA
;;;1086   		LCD_WR_DATA(0x00);
00183a  2000              MOVS     r0,#0
00183c  f7fffffe          BL       LCD_WR_DATA
;;;1087   		LCD_WR_DATA(0x24);
001840  2024              MOVS     r0,#0x24
001842  f7fffffe          BL       LCD_WR_DATA
;;;1088   		LCD_WR_DATA(0x00);
001846  2000              MOVS     r0,#0
001848  f7fffffe          BL       LCD_WR_DATA
;;;1089   		LCD_WR_DATA(0x24);
00184c  2024              MOVS     r0,#0x24
00184e  f7fffffe          BL       LCD_WR_DATA
;;;1090   		LCD_WR_DATA(0x00);
001852  2000              MOVS     r0,#0
001854  f7fffffe          BL       LCD_WR_DATA
;;;1091   		LCD_WR_DATA(0x23);
001858  2023              MOVS     r0,#0x23
00185a  f7fffffe          BL       LCD_WR_DATA
;;;1092   		LCD_WR_DATA(0x00);
00185e  2000              MOVS     r0,#0
001860  f7fffffe          BL       LCD_WR_DATA
;;;1093   
;;;1094   		LCD_WR_REG(0xC4);
001864  20c4              MOVS     r0,#0xc4
001866  f7fffffe          BL       LCD_WR_REG
;;;1095   		LCD_WR_DATA(0x62);
00186a  2062              MOVS     r0,#0x62
00186c  f7fffffe          BL       LCD_WR_DATA
;;;1096   		LCD_WR_DATA(0x00);
001870  2000              MOVS     r0,#0
001872  f7fffffe          BL       LCD_WR_DATA
;;;1097   		LCD_WR_DATA(0x05);
001876  2005              MOVS     r0,#5
001878  f7fffffe          BL       LCD_WR_DATA
;;;1098   		LCD_WR_DATA(0x00);
00187c  2000              MOVS     r0,#0
00187e  f7fffffe          BL       LCD_WR_DATA
;;;1099   		LCD_WR_DATA(0x84);
001882  2084              MOVS     r0,#0x84
001884  f7fffffe          BL       LCD_WR_DATA
;;;1100   		LCD_WR_DATA(0x00);
001888  2000              MOVS     r0,#0
00188a  f7fffffe          BL       LCD_WR_DATA
;;;1101   		LCD_WR_DATA(0xF0);
00188e  20f0              MOVS     r0,#0xf0
001890  f7fffffe          BL       LCD_WR_DATA
;;;1102   		LCD_WR_DATA(0x00);
001894  2000              MOVS     r0,#0
001896  f7fffffe          BL       LCD_WR_DATA
;;;1103   		LCD_WR_DATA(0x18);
00189a  2018              MOVS     r0,#0x18
00189c  f7fffffe          BL       LCD_WR_DATA
;;;1104   		LCD_WR_DATA(0x00);
0018a0  2000              MOVS     r0,#0
0018a2  f7fffffe          BL       LCD_WR_DATA
;;;1105   		LCD_WR_DATA(0xA4);
0018a6  20a4              MOVS     r0,#0xa4
0018a8  f7fffffe          BL       LCD_WR_DATA
;;;1106   		LCD_WR_DATA(0x00);
0018ac  2000              MOVS     r0,#0
0018ae  f7fffffe          BL       LCD_WR_DATA
;;;1107   		LCD_WR_DATA(0x18);
0018b2  2018              MOVS     r0,#0x18
0018b4  f7fffffe          BL       LCD_WR_DATA
;;;1108   		LCD_WR_DATA(0x00);
0018b8  2000              MOVS     r0,#0
0018ba  f7fffffe          BL       LCD_WR_DATA
;;;1109   		LCD_WR_DATA(0x50);
0018be  2050              MOVS     r0,#0x50
0018c0  f7fffffe          BL       LCD_WR_DATA
;;;1110   		LCD_WR_DATA(0x00);
0018c4  2000              MOVS     r0,#0
0018c6  f7fffffe          BL       LCD_WR_DATA
;;;1111   		LCD_WR_DATA(0x0C);
0018ca  200c              MOVS     r0,#0xc
0018cc  f7fffffe          BL       LCD_WR_DATA
;;;1112   		LCD_WR_DATA(0x00);
0018d0  2000              MOVS     r0,#0
0018d2  f7fffffe          BL       LCD_WR_DATA
;;;1113   		LCD_WR_DATA(0x17);
0018d6  2017              MOVS     r0,#0x17
0018d8  f7fffffe          BL       LCD_WR_DATA
;;;1114   		LCD_WR_DATA(0x00);
0018dc  2000              MOVS     r0,#0
0018de  f7fffffe          BL       LCD_WR_DATA
;;;1115   		LCD_WR_DATA(0x95);
0018e2  2095              MOVS     r0,#0x95
0018e4  f7fffffe          BL       LCD_WR_DATA
;;;1116   		LCD_WR_DATA(0x00);
0018e8  2000              MOVS     r0,#0
0018ea  f7fffffe          BL       LCD_WR_DATA
;;;1117   		LCD_WR_DATA(0xF3);
0018ee  20f3              MOVS     r0,#0xf3
0018f0  f7fffffe          BL       LCD_WR_DATA
;;;1118   		LCD_WR_DATA(0x00);
0018f4  2000              MOVS     r0,#0
0018f6  f7fffffe          BL       LCD_WR_DATA
;;;1119   		LCD_WR_DATA(0xE6);
0018fa  20e6              MOVS     r0,#0xe6
0018fc  f7fffffe          BL       LCD_WR_DATA
;;;1120   		LCD_WR_DATA(0x00);
001900  2000              MOVS     r0,#0
001902  f7fffffe          BL       LCD_WR_DATA
;;;1121   
;;;1122   		LCD_WR_REG(0xC5);
001906  20c5              MOVS     r0,#0xc5
001908  f7fffffe          BL       LCD_WR_REG
;;;1123   		LCD_WR_DATA(0x32);
00190c  2032              MOVS     r0,#0x32
00190e  f7fffffe          BL       LCD_WR_DATA
;;;1124   		LCD_WR_DATA(0x00);
001912  2000              MOVS     r0,#0
001914  f7fffffe          BL       LCD_WR_DATA
;;;1125   		LCD_WR_DATA(0x44);
001918  2044              MOVS     r0,#0x44
00191a  f7fffffe          BL       LCD_WR_DATA
;;;1126   		LCD_WR_DATA(0x00);
00191e  2000              MOVS     r0,#0
001920  f7fffffe          BL       LCD_WR_DATA
;;;1127   		LCD_WR_DATA(0x65);
001924  2065              MOVS     r0,#0x65
001926  f7fffffe          BL       LCD_WR_DATA
;;;1128   		LCD_WR_DATA(0x00);
00192a  2000              MOVS     r0,#0
00192c  f7fffffe          BL       LCD_WR_DATA
;;;1129   		LCD_WR_DATA(0x76);
001930  2076              MOVS     r0,#0x76
001932  f7fffffe          BL       LCD_WR_DATA
;;;1130   		LCD_WR_DATA(0x00);
001936  2000              MOVS     r0,#0
001938  f7fffffe          BL       LCD_WR_DATA
;;;1131   		LCD_WR_DATA(0x88);
00193c  2088              MOVS     r0,#0x88
00193e  f7fffffe          BL       LCD_WR_DATA
;;;1132   		LCD_WR_DATA(0x00);
001942  2000              MOVS     r0,#0
001944  f7fffffe          BL       LCD_WR_DATA
;;;1133   
;;;1134   		LCD_WR_REG(0xC6);
001948  20c6              MOVS     r0,#0xc6
00194a  f7fffffe          BL       LCD_WR_REG
;;;1135   		LCD_WR_DATA(0x20);
00194e  2020              MOVS     r0,#0x20
001950  f7fffffe          BL       LCD_WR_DATA
;;;1136   		LCD_WR_DATA(0x00);
001954  2000              MOVS     r0,#0
001956  f7fffffe          BL       LCD_WR_DATA
;;;1137   		LCD_WR_DATA(0x17);
00195a  2017              MOVS     r0,#0x17
00195c  f7fffffe          BL       LCD_WR_DATA
;;;1138   		LCD_WR_DATA(0x00);
001960  2000              MOVS     r0,#0
001962  f7fffffe          BL       LCD_WR_DATA
;;;1139   		LCD_WR_DATA(0x01);
001966  2001              MOVS     r0,#1
001968  f7fffffe          BL       LCD_WR_DATA
;;;1140   		LCD_WR_DATA(0x00);
00196c  2000              MOVS     r0,#0
00196e  f7fffffe          BL       LCD_WR_DATA
;;;1141   
;;;1142   		LCD_WR_REG(0xC7);
001972  20c7              MOVS     r0,#0xc7
001974  f7fffffe          BL       LCD_WR_REG
;;;1143   		LCD_WR_DATA(0x00);
001978  2000              MOVS     r0,#0
00197a  f7fffffe          BL       LCD_WR_DATA
;;;1144   		LCD_WR_DATA(0x00);
00197e  2000              MOVS     r0,#0
001980  f7fffffe          BL       LCD_WR_DATA
;;;1145   		LCD_WR_DATA(0x00);
001984  2000              MOVS     r0,#0
001986  f7fffffe          BL       LCD_WR_DATA
;;;1146   		LCD_WR_DATA(0x00);
00198a  2000              MOVS     r0,#0
00198c  f7fffffe          BL       LCD_WR_DATA
;;;1147   
;;;1148   		LCD_WR_REG(0xC8);
001990  20c8              MOVS     r0,#0xc8
001992  f7fffffe          BL       LCD_WR_REG
;;;1149   		LCD_WR_DATA(0x00);
001996  2000              MOVS     r0,#0
001998  f7fffffe          BL       LCD_WR_DATA
;;;1150   		LCD_WR_DATA(0x00);
00199c  2000              MOVS     r0,#0
00199e  f7fffffe          BL       LCD_WR_DATA
;;;1151   		LCD_WR_DATA(0x00);
0019a2  2000              MOVS     r0,#0
0019a4  f7fffffe          BL       LCD_WR_DATA
;;;1152   		LCD_WR_DATA(0x00);
0019a8  2000              MOVS     r0,#0
0019aa  f7fffffe          BL       LCD_WR_DATA
;;;1153   
;;;1154   		LCD_WR_REG(0xC9);
0019ae  20c9              MOVS     r0,#0xc9
0019b0  f7fffffe          BL       LCD_WR_REG
;;;1155   		LCD_WR_DATA(0x00);
0019b4  2000              MOVS     r0,#0
0019b6  f7fffffe          BL       LCD_WR_DATA
;;;1156   		LCD_WR_DATA(0x00);
0019ba  2000              MOVS     r0,#0
0019bc  f7fffffe          BL       LCD_WR_DATA
;;;1157   		LCD_WR_DATA(0x00);
0019c0  2000              MOVS     r0,#0
0019c2  f7fffffe          BL       LCD_WR_DATA
;;;1158   		LCD_WR_DATA(0x00);
0019c6  2000              MOVS     r0,#0
0019c8  f7fffffe          BL       LCD_WR_DATA
;;;1159   		LCD_WR_DATA(0x00);
0019cc  2000              MOVS     r0,#0
0019ce  f7fffffe          BL       LCD_WR_DATA
;;;1160   		LCD_WR_DATA(0x00);
0019d2  2000              MOVS     r0,#0
0019d4  f7fffffe          BL       LCD_WR_DATA
;;;1161   		LCD_WR_DATA(0x00);
0019d8  2000              MOVS     r0,#0
0019da  f7fffffe          BL       LCD_WR_DATA
;;;1162   		LCD_WR_DATA(0x00);
0019de  2000              MOVS     r0,#0
0019e0  f7fffffe          BL       LCD_WR_DATA
;;;1163   		LCD_WR_DATA(0x00);
0019e4  2000              MOVS     r0,#0
0019e6  f7fffffe          BL       LCD_WR_DATA
;;;1164   		LCD_WR_DATA(0x00);
0019ea  2000              MOVS     r0,#0
0019ec  f7fffffe          BL       LCD_WR_DATA
;;;1165   		LCD_WR_DATA(0x00);
0019f0  2000              MOVS     r0,#0
0019f2  f7fffffe          BL       LCD_WR_DATA
;;;1166   		LCD_WR_DATA(0x00);
0019f6  2000              MOVS     r0,#0
0019f8  f7fffffe          BL       LCD_WR_DATA
;;;1167   		LCD_WR_DATA(0x00);
0019fc  2000              MOVS     r0,#0
0019fe  f7fffffe          BL       LCD_WR_DATA
;;;1168   		LCD_WR_DATA(0x00);
001a02  2000              MOVS     r0,#0
001a04  f7fffffe          BL       LCD_WR_DATA
;;;1169   		LCD_WR_DATA(0x00);
001a08  2000              MOVS     r0,#0
001a0a  f7fffffe          BL       LCD_WR_DATA
;;;1170   		LCD_WR_DATA(0x00);
001a0e  2000              MOVS     r0,#0
001a10  f7fffffe          BL       LCD_WR_DATA
;;;1171   
;;;1172   		LCD_WR_REG(0xE0);
001a14  20e0              MOVS     r0,#0xe0
001a16  f7fffffe          BL       LCD_WR_REG
;;;1173   		LCD_WR_DATA(0x16);
001a1a  2016              MOVS     r0,#0x16
001a1c  f7fffffe          BL       LCD_WR_DATA
;;;1174   		LCD_WR_DATA(0x00);
001a20  2000              MOVS     r0,#0
001a22  f7fffffe          BL       LCD_WR_DATA
;;;1175   		LCD_WR_DATA(0x1C);
001a26  201c              MOVS     r0,#0x1c
001a28  f7fffffe          BL       LCD_WR_DATA
;;;1176   		LCD_WR_DATA(0x00);
001a2c  2000              MOVS     r0,#0
001a2e  f7fffffe          BL       LCD_WR_DATA
;;;1177   		LCD_WR_DATA(0x21);
001a32  2021              MOVS     r0,#0x21
001a34  f7fffffe          BL       LCD_WR_DATA
;;;1178   		LCD_WR_DATA(0x00);
001a38  2000              MOVS     r0,#0
001a3a  f7fffffe          BL       LCD_WR_DATA
;;;1179   		LCD_WR_DATA(0x36);
001a3e  2036              MOVS     r0,#0x36
001a40  f7fffffe          BL       LCD_WR_DATA
;;;1180   		LCD_WR_DATA(0x00);
001a44  2000              MOVS     r0,#0
001a46  f7fffffe          BL       LCD_WR_DATA
;;;1181   		LCD_WR_DATA(0x46);
001a4a  2046              MOVS     r0,#0x46
001a4c  f7fffffe          BL       LCD_WR_DATA
;;;1182   		LCD_WR_DATA(0x00);
001a50  2000              MOVS     r0,#0
001a52  f7fffffe          BL       LCD_WR_DATA
;;;1183   		LCD_WR_DATA(0x52);
001a56  2052              MOVS     r0,#0x52
001a58  f7fffffe          BL       LCD_WR_DATA
;;;1184   		LCD_WR_DATA(0x00);
001a5c  2000              MOVS     r0,#0
001a5e  f7fffffe          BL       LCD_WR_DATA
;;;1185   		LCD_WR_DATA(0x64);
001a62  2064              MOVS     r0,#0x64
001a64  f7fffffe          BL       LCD_WR_DATA
;;;1186   		LCD_WR_DATA(0x00);
001a68  2000              MOVS     r0,#0
001a6a  f7fffffe          BL       LCD_WR_DATA
;;;1187   		LCD_WR_DATA(0x7A);
001a6e  207a              MOVS     r0,#0x7a
001a70  f7fffffe          BL       LCD_WR_DATA
;;;1188   		LCD_WR_DATA(0x00);
001a74  2000              MOVS     r0,#0
001a76  f7fffffe          BL       LCD_WR_DATA
;;;1189   		LCD_WR_DATA(0x8B);
001a7a  208b              MOVS     r0,#0x8b
001a7c  f7fffffe          BL       LCD_WR_DATA
;;;1190   		LCD_WR_DATA(0x00);
001a80  2000              MOVS     r0,#0
001a82  f7fffffe          BL       LCD_WR_DATA
;;;1191   		LCD_WR_DATA(0x99);
001a86  2099              MOVS     r0,#0x99
001a88  f7fffffe          BL       LCD_WR_DATA
;;;1192   		LCD_WR_DATA(0x00);
001a8c  2000              MOVS     r0,#0
001a8e  f7fffffe          BL       LCD_WR_DATA
;;;1193   		LCD_WR_DATA(0xA8);
001a92  20a8              MOVS     r0,#0xa8
001a94  f7fffffe          BL       LCD_WR_DATA
;;;1194   		LCD_WR_DATA(0x00);
001a98  2000              MOVS     r0,#0
001a9a  f7fffffe          BL       LCD_WR_DATA
;;;1195   		LCD_WR_DATA(0xB9);
001a9e  20b9              MOVS     r0,#0xb9
001aa0  f7fffffe          BL       LCD_WR_DATA
;;;1196   		LCD_WR_DATA(0x00);
001aa4  2000              MOVS     r0,#0
001aa6  f7fffffe          BL       LCD_WR_DATA
;;;1197   		LCD_WR_DATA(0xC4);
001aaa  20c4              MOVS     r0,#0xc4
001aac  f7fffffe          BL       LCD_WR_DATA
;;;1198   		LCD_WR_DATA(0x00);
001ab0  2000              MOVS     r0,#0
001ab2  f7fffffe          BL       LCD_WR_DATA
;;;1199   		LCD_WR_DATA(0xCA);
001ab6  20ca              MOVS     r0,#0xca
001ab8  f7fffffe          BL       LCD_WR_DATA
;;;1200   		LCD_WR_DATA(0x00);
001abc  2000              MOVS     r0,#0
001abe  f7fffffe          BL       LCD_WR_DATA
;;;1201   		LCD_WR_DATA(0xD2);
001ac2  20d2              MOVS     r0,#0xd2
001ac4  f7fffffe          BL       LCD_WR_DATA
;;;1202   		LCD_WR_DATA(0x00);
001ac8  2000              MOVS     r0,#0
001aca  f7fffffe          BL       LCD_WR_DATA
;;;1203   		LCD_WR_DATA(0xD9);
001ace  20d9              MOVS     r0,#0xd9
001ad0  f7fffffe          BL       LCD_WR_DATA
;;;1204   		LCD_WR_DATA(0x00);
001ad4  2000              MOVS     r0,#0
001ad6  f7fffffe          BL       LCD_WR_DATA
;;;1205   		LCD_WR_DATA(0xE0);
001ada  20e0              MOVS     r0,#0xe0
001adc  f7fffffe          BL       LCD_WR_DATA
;;;1206   		LCD_WR_DATA(0x00);
001ae0  2000              MOVS     r0,#0
001ae2  f7fffffe          BL       LCD_WR_DATA
;;;1207   		LCD_WR_DATA(0xF3);
001ae6  20f3              MOVS     r0,#0xf3
001ae8  f7fffffe          BL       LCD_WR_DATA
;;;1208   		LCD_WR_DATA(0x00);
001aec  2000              MOVS     r0,#0
001aee  f7fffffe          BL       LCD_WR_DATA
;;;1209   
;;;1210   		LCD_WR_REG(0xE1);
001af2  20e1              MOVS     r0,#0xe1
001af4  f7fffffe          BL       LCD_WR_REG
;;;1211   		LCD_WR_DATA(0x16);
001af8  2016              MOVS     r0,#0x16
001afa  f7fffffe          BL       LCD_WR_DATA
;;;1212   		LCD_WR_DATA(0x00);
001afe  2000              MOVS     r0,#0
001b00  f7fffffe          BL       LCD_WR_DATA
;;;1213   		LCD_WR_DATA(0x1C);
001b04  201c              MOVS     r0,#0x1c
001b06  f7fffffe          BL       LCD_WR_DATA
;;;1214   		LCD_WR_DATA(0x00);
001b0a  2000              MOVS     r0,#0
001b0c  f7fffffe          BL       LCD_WR_DATA
;;;1215   		LCD_WR_DATA(0x22);
001b10  2022              MOVS     r0,#0x22
001b12  f7fffffe          BL       LCD_WR_DATA
;;;1216   		LCD_WR_DATA(0x00);
001b16  2000              MOVS     r0,#0
001b18  f7fffffe          BL       LCD_WR_DATA
;;;1217   		LCD_WR_DATA(0x36);
001b1c  2036              MOVS     r0,#0x36
001b1e  f7fffffe          BL       LCD_WR_DATA
;;;1218   		LCD_WR_DATA(0x00);
001b22  2000              MOVS     r0,#0
001b24  f7fffffe          BL       LCD_WR_DATA
;;;1219   		LCD_WR_DATA(0x45);
001b28  2045              MOVS     r0,#0x45
001b2a  f7fffffe          BL       LCD_WR_DATA
;;;1220   		LCD_WR_DATA(0x00);
001b2e  2000              MOVS     r0,#0
001b30  f7fffffe          BL       LCD_WR_DATA
;;;1221   		LCD_WR_DATA(0x52);
001b34  2052              MOVS     r0,#0x52
001b36  f7fffffe          BL       LCD_WR_DATA
;;;1222   		LCD_WR_DATA(0x00);
001b3a  2000              MOVS     r0,#0
001b3c  f7fffffe          BL       LCD_WR_DATA
;;;1223   		LCD_WR_DATA(0x64);
001b40  2064              MOVS     r0,#0x64
001b42  f7fffffe          BL       LCD_WR_DATA
;;;1224   		LCD_WR_DATA(0x00);
001b46  2000              MOVS     r0,#0
001b48  f7fffffe          BL       LCD_WR_DATA
;;;1225   		LCD_WR_DATA(0x7A);
001b4c  207a              MOVS     r0,#0x7a
001b4e  f7fffffe          BL       LCD_WR_DATA
;;;1226   		LCD_WR_DATA(0x00);
001b52  2000              MOVS     r0,#0
001b54  f7fffffe          BL       LCD_WR_DATA
;;;1227   		LCD_WR_DATA(0x8B);
001b58  208b              MOVS     r0,#0x8b
001b5a  f7fffffe          BL       LCD_WR_DATA
;;;1228   		LCD_WR_DATA(0x00);
001b5e  2000              MOVS     r0,#0
001b60  f7fffffe          BL       LCD_WR_DATA
;;;1229   		LCD_WR_DATA(0x99);
001b64  2099              MOVS     r0,#0x99
001b66  f7fffffe          BL       LCD_WR_DATA
;;;1230   		LCD_WR_DATA(0x00);
001b6a  2000              MOVS     r0,#0
001b6c  f7fffffe          BL       LCD_WR_DATA
;;;1231   		LCD_WR_DATA(0xA8);
001b70  20a8              MOVS     r0,#0xa8
001b72  f7fffffe          BL       LCD_WR_DATA
;;;1232   		LCD_WR_DATA(0x00);
001b76  2000              MOVS     r0,#0
001b78  f7fffffe          BL       LCD_WR_DATA
;;;1233   		LCD_WR_DATA(0xB9);
001b7c  20b9              MOVS     r0,#0xb9
001b7e  f7fffffe          BL       LCD_WR_DATA
;;;1234   		LCD_WR_DATA(0x00);
001b82  2000              MOVS     r0,#0
001b84  f7fffffe          BL       LCD_WR_DATA
;;;1235   		LCD_WR_DATA(0xC4);
001b88  20c4              MOVS     r0,#0xc4
001b8a  f7fffffe          BL       LCD_WR_DATA
;;;1236   		LCD_WR_DATA(0x00);
001b8e  2000              MOVS     r0,#0
001b90  f7fffffe          BL       LCD_WR_DATA
;;;1237   		LCD_WR_DATA(0xCA);
001b94  20ca              MOVS     r0,#0xca
001b96  f7fffffe          BL       LCD_WR_DATA
;;;1238   		LCD_WR_DATA(0x00);
001b9a  2000              MOVS     r0,#0
001b9c  f7fffffe          BL       LCD_WR_DATA
;;;1239   		LCD_WR_DATA(0xD2);
001ba0  20d2              MOVS     r0,#0xd2
001ba2  f7fffffe          BL       LCD_WR_DATA
;;;1240   		LCD_WR_DATA(0x00);
001ba6  2000              MOVS     r0,#0
001ba8  f7fffffe          BL       LCD_WR_DATA
;;;1241   		LCD_WR_DATA(0xD8);
001bac  20d8              MOVS     r0,#0xd8
001bae  f7fffffe          BL       LCD_WR_DATA
;;;1242   		LCD_WR_DATA(0x00);
001bb2  2000              MOVS     r0,#0
001bb4  f7fffffe          BL       LCD_WR_DATA
;;;1243   		LCD_WR_DATA(0xE0);
001bb8  20e0              MOVS     r0,#0xe0
001bba  f7fffffe          BL       LCD_WR_DATA
;;;1244   		LCD_WR_DATA(0x00);
001bbe  2000              MOVS     r0,#0
001bc0  f7fffffe          BL       LCD_WR_DATA
;;;1245   		LCD_WR_DATA(0xF3);
001bc4  20f3              MOVS     r0,#0xf3
001bc6  f7fffffe          BL       LCD_WR_DATA
;;;1246   		LCD_WR_DATA(0x00);
001bca  2000              MOVS     r0,#0
001bcc  f7fffffe          BL       LCD_WR_DATA
;;;1247   
;;;1248   		LCD_WR_REG(0xE2);
001bd0  20e2              MOVS     r0,#0xe2
001bd2  f7fffffe          BL       LCD_WR_REG
;;;1249   		LCD_WR_DATA(0x05);
001bd6  2005              MOVS     r0,#5
001bd8  f7fffffe          BL       LCD_WR_DATA
;;;1250   		LCD_WR_DATA(0x00);
001bdc  2000              MOVS     r0,#0
001bde  f7fffffe          BL       LCD_WR_DATA
;;;1251   		LCD_WR_DATA(0x0B);
001be2  200b              MOVS     r0,#0xb
001be4  f7fffffe          BL       LCD_WR_DATA
;;;1252   		LCD_WR_DATA(0x00);
001be8  2000              MOVS     r0,#0
001bea  f7fffffe          BL       LCD_WR_DATA
;;;1253   		LCD_WR_DATA(0x1B);
001bee  201b              MOVS     r0,#0x1b
001bf0  f7fffffe          BL       LCD_WR_DATA
;;;1254   		LCD_WR_DATA(0x00);
001bf4  2000              MOVS     r0,#0
001bf6  f7fffffe          BL       LCD_WR_DATA
;;;1255   		LCD_WR_DATA(0x34);
001bfa  2034              MOVS     r0,#0x34
001bfc  f7fffffe          BL       LCD_WR_DATA
;;;1256   		LCD_WR_DATA(0x00);
001c00  2000              MOVS     r0,#0
001c02  f7fffffe          BL       LCD_WR_DATA
;;;1257   		LCD_WR_DATA(0x44);
001c06  2044              MOVS     r0,#0x44
001c08  f7fffffe          BL       LCD_WR_DATA
;;;1258   		LCD_WR_DATA(0x00);
001c0c  2000              MOVS     r0,#0
001c0e  f7fffffe          BL       LCD_WR_DATA
;;;1259   		LCD_WR_DATA(0x4F);
001c12  204f              MOVS     r0,#0x4f
001c14  f7fffffe          BL       LCD_WR_DATA
;;;1260   		LCD_WR_DATA(0x00);
001c18  2000              MOVS     r0,#0
001c1a  f7fffffe          BL       LCD_WR_DATA
;;;1261   		LCD_WR_DATA(0x61);
001c1e  2061              MOVS     r0,#0x61
001c20  f7fffffe          BL       LCD_WR_DATA
;;;1262   		LCD_WR_DATA(0x00);
001c24  2000              MOVS     r0,#0
001c26  f7fffffe          BL       LCD_WR_DATA
;;;1263   		LCD_WR_DATA(0x79);
001c2a  2079              MOVS     r0,#0x79
001c2c  f7fffffe          BL       LCD_WR_DATA
;;;1264   		LCD_WR_DATA(0x00);
001c30  2000              MOVS     r0,#0
001c32  f7fffffe          BL       LCD_WR_DATA
;;;1265   		LCD_WR_DATA(0x88);
001c36  2088              MOVS     r0,#0x88
001c38  f7fffffe          BL       LCD_WR_DATA
;;;1266   		LCD_WR_DATA(0x00);
001c3c  2000              MOVS     r0,#0
001c3e  f7fffffe          BL       LCD_WR_DATA
;;;1267   		LCD_WR_DATA(0x97);
001c42  2097              MOVS     r0,#0x97
001c44  f7fffffe          BL       LCD_WR_DATA
;;;1268   		LCD_WR_DATA(0x00);
001c48  2000              MOVS     r0,#0
001c4a  f7fffffe          BL       LCD_WR_DATA
;;;1269   		LCD_WR_DATA(0xA6);
001c4e  20a6              MOVS     r0,#0xa6
001c50  f7fffffe          BL       LCD_WR_DATA
;;;1270   		LCD_WR_DATA(0x00);
001c54  2000              MOVS     r0,#0
001c56  f7fffffe          BL       LCD_WR_DATA
;;;1271   		LCD_WR_DATA(0xB7);
001c5a  20b7              MOVS     r0,#0xb7
001c5c  f7fffffe          BL       LCD_WR_DATA
;;;1272   		LCD_WR_DATA(0x00);
001c60  2000              MOVS     r0,#0
001c62  f7fffffe          BL       LCD_WR_DATA
;;;1273   		LCD_WR_DATA(0xC2);
001c66  20c2              MOVS     r0,#0xc2
001c68  f7fffffe          BL       LCD_WR_DATA
;;;1274   		LCD_WR_DATA(0x00);
001c6c  2000              MOVS     r0,#0
001c6e  f7fffffe          BL       LCD_WR_DATA
;;;1275   		LCD_WR_DATA(0xC7);
001c72  20c7              MOVS     r0,#0xc7
001c74  f7fffffe          BL       LCD_WR_DATA
;;;1276   		LCD_WR_DATA(0x00);
001c78  2000              MOVS     r0,#0
001c7a  f7fffffe          BL       LCD_WR_DATA
;;;1277   		LCD_WR_DATA(0xD1);
001c7e  20d1              MOVS     r0,#0xd1
001c80  f7fffffe          BL       LCD_WR_DATA
;;;1278   		LCD_WR_DATA(0x00);
001c84  2000              MOVS     r0,#0
001c86  f7fffffe          BL       LCD_WR_DATA
;;;1279   		LCD_WR_DATA(0xD6);
001c8a  20d6              MOVS     r0,#0xd6
001c8c  f7fffffe          BL       LCD_WR_DATA
;;;1280   		LCD_WR_DATA(0x00);
001c90  2000              MOVS     r0,#0
001c92  f7fffffe          BL       LCD_WR_DATA
;;;1281   		LCD_WR_DATA(0xDD);
001c96  20dd              MOVS     r0,#0xdd
001c98  f7fffffe          BL       LCD_WR_DATA
;;;1282   		LCD_WR_DATA(0x00);
001c9c  2000              MOVS     r0,#0
001c9e  f7fffffe          BL       LCD_WR_DATA
;;;1283   		LCD_WR_DATA(0xF3);
001ca2  20f3              MOVS     r0,#0xf3
001ca4  f7fffffe          BL       LCD_WR_DATA
;;;1284   		LCD_WR_DATA(0x00);
001ca8  2000              MOVS     r0,#0
001caa  f7fffffe          BL       LCD_WR_DATA
;;;1285   		LCD_WR_REG(0xE3);
001cae  20e3              MOVS     r0,#0xe3
001cb0  f7fffffe          BL       LCD_WR_REG
;;;1286   		LCD_WR_DATA(0x05);
001cb4  2005              MOVS     r0,#5
001cb6  f7fffffe          BL       LCD_WR_DATA
;;;1287   		LCD_WR_DATA(0x00);
001cba  2000              MOVS     r0,#0
001cbc  f7fffffe          BL       LCD_WR_DATA
;;;1288   		LCD_WR_DATA(0xA);
001cc0  200a              MOVS     r0,#0xa
001cc2  f7fffffe          BL       LCD_WR_DATA
;;;1289   		LCD_WR_DATA(0x00);
001cc6  2000              MOVS     r0,#0
001cc8  f7fffffe          BL       LCD_WR_DATA
;;;1290   		LCD_WR_DATA(0x1C);
001ccc  201c              MOVS     r0,#0x1c
001cce  f7fffffe          BL       LCD_WR_DATA
;;;1291   		LCD_WR_DATA(0x00);
001cd2  2000              MOVS     r0,#0
001cd4  f7fffffe          BL       LCD_WR_DATA
;;;1292   		LCD_WR_DATA(0x33);
001cd8  2033              MOVS     r0,#0x33
001cda  f7fffffe          BL       LCD_WR_DATA
;;;1293   		LCD_WR_DATA(0x00);
001cde  2000              MOVS     r0,#0
001ce0  f7fffffe          BL       LCD_WR_DATA
;;;1294   		LCD_WR_DATA(0x44);
001ce4  2044              MOVS     r0,#0x44
001ce6  f7fffffe          BL       LCD_WR_DATA
;;;1295   		LCD_WR_DATA(0x00);
001cea  2000              MOVS     r0,#0
001cec  f7fffffe          BL       LCD_WR_DATA
;;;1296   		LCD_WR_DATA(0x50);
001cf0  2050              MOVS     r0,#0x50
001cf2  f7fffffe          BL       LCD_WR_DATA
;;;1297   		LCD_WR_DATA(0x00);
001cf6  2000              MOVS     r0,#0
001cf8  f7fffffe          BL       LCD_WR_DATA
;;;1298   		LCD_WR_DATA(0x62);
001cfc  2062              MOVS     r0,#0x62
001cfe  f7fffffe          BL       LCD_WR_DATA
;;;1299   		LCD_WR_DATA(0x00);
001d02  2000              MOVS     r0,#0
001d04  f7fffffe          BL       LCD_WR_DATA
;;;1300   		LCD_WR_DATA(0x78);
001d08  2078              MOVS     r0,#0x78
001d0a  f7fffffe          BL       LCD_WR_DATA
;;;1301   		LCD_WR_DATA(0x00);
001d0e  2000              MOVS     r0,#0
001d10  f7fffffe          BL       LCD_WR_DATA
;;;1302   		LCD_WR_DATA(0x88);
001d14  2088              MOVS     r0,#0x88
001d16  f7fffffe          BL       LCD_WR_DATA
;;;1303   		LCD_WR_DATA(0x00);
001d1a  2000              MOVS     r0,#0
001d1c  f7fffffe          BL       LCD_WR_DATA
;;;1304   		LCD_WR_DATA(0x97);
001d20  2097              MOVS     r0,#0x97
001d22  f7fffffe          BL       LCD_WR_DATA
;;;1305   		LCD_WR_DATA(0x00);
001d26  2000              MOVS     r0,#0
001d28  f7fffffe          BL       LCD_WR_DATA
;;;1306   		LCD_WR_DATA(0xA6);
001d2c  20a6              MOVS     r0,#0xa6
001d2e  f7fffffe          BL       LCD_WR_DATA
;;;1307   		LCD_WR_DATA(0x00);
001d32  2000              MOVS     r0,#0
001d34  f7fffffe          BL       LCD_WR_DATA
;;;1308   		LCD_WR_DATA(0xB7);
001d38  20b7              MOVS     r0,#0xb7
001d3a  f7fffffe          BL       LCD_WR_DATA
;;;1309   		LCD_WR_DATA(0x00);
001d3e  2000              MOVS     r0,#0
001d40  f7fffffe          BL       LCD_WR_DATA
;;;1310   		LCD_WR_DATA(0xC2);
001d44  20c2              MOVS     r0,#0xc2
001d46  f7fffffe          BL       LCD_WR_DATA
;;;1311   		LCD_WR_DATA(0x00);
001d4a  2000              MOVS     r0,#0
001d4c  f7fffffe          BL       LCD_WR_DATA
;;;1312   		LCD_WR_DATA(0xC7);
001d50  20c7              MOVS     r0,#0xc7
001d52  f7fffffe          BL       LCD_WR_DATA
;;;1313   		LCD_WR_DATA(0x00);
001d56  2000              MOVS     r0,#0
001d58  f7fffffe          BL       LCD_WR_DATA
;;;1314   		LCD_WR_DATA(0xD1);
001d5c  20d1              MOVS     r0,#0xd1
001d5e  f7fffffe          BL       LCD_WR_DATA
;;;1315   		LCD_WR_DATA(0x00);
001d62  2000              MOVS     r0,#0
001d64  f7fffffe          BL       LCD_WR_DATA
;;;1316   		LCD_WR_DATA(0xD5);
001d68  20d5              MOVS     r0,#0xd5
001d6a  f7fffffe          BL       LCD_WR_DATA
;;;1317   		LCD_WR_DATA(0x00);
001d6e  2000              MOVS     r0,#0
001d70  f7fffffe          BL       LCD_WR_DATA
;;;1318   		LCD_WR_DATA(0xDD);
001d74  20dd              MOVS     r0,#0xdd
001d76  f7fffffe          BL       LCD_WR_DATA
;;;1319   		LCD_WR_DATA(0x00);
001d7a  2000              MOVS     r0,#0
001d7c  f7fffffe          BL       LCD_WR_DATA
;;;1320   		LCD_WR_DATA(0xF3);
001d80  20f3              MOVS     r0,#0xf3
001d82  f7fffffe          BL       LCD_WR_DATA
;;;1321   		LCD_WR_DATA(0x00);
001d86  2000              MOVS     r0,#0
001d88  f7fffffe          BL       LCD_WR_DATA
;;;1322   
;;;1323   		LCD_WR_REG(0xE4);
001d8c  20e4              MOVS     r0,#0xe4
001d8e  f7fffffe          BL       LCD_WR_REG
;;;1324   		LCD_WR_DATA(0x01);
001d92  2001              MOVS     r0,#1
001d94  f7fffffe          BL       LCD_WR_DATA
;;;1325   		LCD_WR_DATA(0x00);
001d98  2000              MOVS     r0,#0
001d9a  f7fffffe          BL       LCD_WR_DATA
;;;1326   		LCD_WR_DATA(0x01);
001d9e  2001              MOVS     r0,#1
001da0  f7fffffe          BL       LCD_WR_DATA
;;;1327   		LCD_WR_DATA(0x00);
001da4  2000              MOVS     r0,#0
001da6  f7fffffe          BL       LCD_WR_DATA
;;;1328   		LCD_WR_DATA(0x02);
001daa  2002              MOVS     r0,#2
001dac  f7fffffe          BL       LCD_WR_DATA
;;;1329   		LCD_WR_DATA(0x00);
001db0  2000              MOVS     r0,#0
001db2  f7fffffe          BL       LCD_WR_DATA
;;;1330   		LCD_WR_DATA(0x2A);
001db6  202a              MOVS     r0,#0x2a
001db8  f7fffffe          BL       LCD_WR_DATA
;;;1331   		LCD_WR_DATA(0x00);
001dbc  2000              MOVS     r0,#0
001dbe  f7fffffe          BL       LCD_WR_DATA
;;;1332   		LCD_WR_DATA(0x3C);
001dc2  203c              MOVS     r0,#0x3c
001dc4  f7fffffe          BL       LCD_WR_DATA
;;;1333   		LCD_WR_DATA(0x00);
001dc8  2000              MOVS     r0,#0
001dca  f7fffffe          BL       LCD_WR_DATA
;;;1334   		LCD_WR_DATA(0x4B);
001dce  204b              MOVS     r0,#0x4b
001dd0  f7fffffe          BL       LCD_WR_DATA
;;;1335   		LCD_WR_DATA(0x00);
001dd4  2000              MOVS     r0,#0
001dd6  f7fffffe          BL       LCD_WR_DATA
;;;1336   		LCD_WR_DATA(0x5D);
001dda  205d              MOVS     r0,#0x5d
001ddc  f7fffffe          BL       LCD_WR_DATA
;;;1337   		LCD_WR_DATA(0x00);
001de0  2000              MOVS     r0,#0
001de2  f7fffffe          BL       LCD_WR_DATA
;;;1338   		LCD_WR_DATA(0x74);
001de6  2074              MOVS     r0,#0x74
001de8  f7fffffe          BL       LCD_WR_DATA
;;;1339   		LCD_WR_DATA(0x00);
001dec  2000              MOVS     r0,#0
001dee  f7fffffe          BL       LCD_WR_DATA
;;;1340   		LCD_WR_DATA(0x84);
001df2  2084              MOVS     r0,#0x84
001df4  f7fffffe          BL       LCD_WR_DATA
;;;1341   		LCD_WR_DATA(0x00);
001df8  2000              MOVS     r0,#0
001dfa  f7fffffe          BL       LCD_WR_DATA
;;;1342   		LCD_WR_DATA(0x93);
001dfe  2093              MOVS     r0,#0x93
001e00  f7fffffe          BL       LCD_WR_DATA
;;;1343   		LCD_WR_DATA(0x00);
001e04  2000              MOVS     r0,#0
001e06  f7fffffe          BL       LCD_WR_DATA
;;;1344   		LCD_WR_DATA(0xA2);
001e0a  20a2              MOVS     r0,#0xa2
001e0c  f7fffffe          BL       LCD_WR_DATA
;;;1345   		LCD_WR_DATA(0x00);
001e10  2000              MOVS     r0,#0
001e12  f7fffffe          BL       LCD_WR_DATA
;;;1346   		LCD_WR_DATA(0xB3);
001e16  20b3              MOVS     r0,#0xb3
001e18  f7fffffe          BL       LCD_WR_DATA
;;;1347   		LCD_WR_DATA(0x00);
001e1c  2000              MOVS     r0,#0
001e1e  f7fffffe          BL       LCD_WR_DATA
;;;1348   		LCD_WR_DATA(0xBE);
001e22  20be              MOVS     r0,#0xbe
001e24  f7fffffe          BL       LCD_WR_DATA
;;;1349   		LCD_WR_DATA(0x00);
001e28  2000              MOVS     r0,#0
001e2a  f7fffffe          BL       LCD_WR_DATA
;;;1350   		LCD_WR_DATA(0xC4);
001e2e  20c4              MOVS     r0,#0xc4
001e30  f7fffffe          BL       LCD_WR_DATA
;;;1351   		LCD_WR_DATA(0x00);
001e34  2000              MOVS     r0,#0
001e36  f7fffffe          BL       LCD_WR_DATA
;;;1352   		LCD_WR_DATA(0xCD);
001e3a  20cd              MOVS     r0,#0xcd
001e3c  f7fffffe          BL       LCD_WR_DATA
;;;1353   		LCD_WR_DATA(0x00);
001e40  2000              MOVS     r0,#0
001e42  f7fffffe          BL       LCD_WR_DATA
;;;1354   		LCD_WR_DATA(0xD3);
001e46  20d3              MOVS     r0,#0xd3
001e48  f7fffffe          BL       LCD_WR_DATA
;;;1355   		LCD_WR_DATA(0x00);
001e4c  2000              MOVS     r0,#0
001e4e  f7fffffe          BL       LCD_WR_DATA
;;;1356   		LCD_WR_DATA(0xDD);
001e52  20dd              MOVS     r0,#0xdd
001e54  f7fffffe          BL       LCD_WR_DATA
;;;1357   		LCD_WR_DATA(0x00);
001e58  2000              MOVS     r0,#0
001e5a  f7fffffe          BL       LCD_WR_DATA
;;;1358   		LCD_WR_DATA(0xF3);
001e5e  20f3              MOVS     r0,#0xf3
001e60  f7fffffe          BL       LCD_WR_DATA
;;;1359   		LCD_WR_DATA(0x00);
001e64  2000              MOVS     r0,#0
001e66  f7fffffe          BL       LCD_WR_DATA
;;;1360   		LCD_WR_REG(0xE5);
001e6a  20e5              MOVS     r0,#0xe5
001e6c  f7fffffe          BL       LCD_WR_REG
;;;1361   		LCD_WR_DATA(0x00);
001e70  2000              MOVS     r0,#0
001e72  f7fffffe          BL       LCD_WR_DATA
;;;1362   		LCD_WR_DATA(0x00);
001e76  2000              MOVS     r0,#0
001e78  f7fffffe          BL       LCD_WR_DATA
;;;1363   		LCD_WR_DATA(0x00);
001e7c  2000              MOVS     r0,#0
001e7e  f7fffffe          BL       LCD_WR_DATA
;;;1364   		LCD_WR_DATA(0x00);
001e82  2000              MOVS     r0,#0
001e84  f7fffffe          BL       LCD_WR_DATA
;;;1365   		LCD_WR_DATA(0x02);
001e88  2002              MOVS     r0,#2
001e8a  f7fffffe          BL       LCD_WR_DATA
;;;1366   		LCD_WR_DATA(0x00);
001e8e  2000              MOVS     r0,#0
001e90  f7fffffe          BL       LCD_WR_DATA
;;;1367   		LCD_WR_DATA(0x29);
001e94  2029              MOVS     r0,#0x29
001e96  f7fffffe          BL       LCD_WR_DATA
;;;1368   		LCD_WR_DATA(0x00);
001e9a  2000              MOVS     r0,#0
001e9c  f7fffffe          BL       LCD_WR_DATA
;;;1369   		LCD_WR_DATA(0x3C);
001ea0  203c              MOVS     r0,#0x3c
001ea2  f7fffffe          BL       LCD_WR_DATA
;;;1370   		LCD_WR_DATA(0x00);
001ea6  2000              MOVS     r0,#0
001ea8  f7fffffe          BL       LCD_WR_DATA
;;;1371   		LCD_WR_DATA(0x4B);
001eac  204b              MOVS     r0,#0x4b
001eae  f7fffffe          BL       LCD_WR_DATA
;;;1372   		LCD_WR_DATA(0x00);
001eb2  2000              MOVS     r0,#0
001eb4  f7fffffe          BL       LCD_WR_DATA
;;;1373   		LCD_WR_DATA(0x5D);
001eb8  205d              MOVS     r0,#0x5d
001eba  f7fffffe          BL       LCD_WR_DATA
;;;1374   		LCD_WR_DATA(0x00);
001ebe  2000              MOVS     r0,#0
001ec0  f7fffffe          BL       LCD_WR_DATA
;;;1375   		LCD_WR_DATA(0x74);
001ec4  2074              MOVS     r0,#0x74
001ec6  f7fffffe          BL       LCD_WR_DATA
;;;1376   		LCD_WR_DATA(0x00);
001eca  2000              MOVS     r0,#0
001ecc  f7fffffe          BL       LCD_WR_DATA
;;;1377   		LCD_WR_DATA(0x84);
001ed0  2084              MOVS     r0,#0x84
001ed2  f7fffffe          BL       LCD_WR_DATA
;;;1378   		LCD_WR_DATA(0x00);
001ed6  2000              MOVS     r0,#0
001ed8  f7fffffe          BL       LCD_WR_DATA
;;;1379   		LCD_WR_DATA(0x93);
001edc  2093              MOVS     r0,#0x93
001ede  f7fffffe          BL       LCD_WR_DATA
;;;1380   		LCD_WR_DATA(0x00);
001ee2  2000              MOVS     r0,#0
001ee4  f7fffffe          BL       LCD_WR_DATA
;;;1381   		LCD_WR_DATA(0xA2);
001ee8  20a2              MOVS     r0,#0xa2
001eea  f7fffffe          BL       LCD_WR_DATA
;;;1382   		LCD_WR_DATA(0x00);
001eee  2000              MOVS     r0,#0
001ef0  f7fffffe          BL       LCD_WR_DATA
;;;1383   		LCD_WR_DATA(0xB3);
001ef4  20b3              MOVS     r0,#0xb3
001ef6  f7fffffe          BL       LCD_WR_DATA
;;;1384   		LCD_WR_DATA(0x00);
001efa  2000              MOVS     r0,#0
001efc  f7fffffe          BL       LCD_WR_DATA
;;;1385   		LCD_WR_DATA(0xBE);
001f00  20be              MOVS     r0,#0xbe
001f02  f7fffffe          BL       LCD_WR_DATA
;;;1386   		LCD_WR_DATA(0x00);
001f06  2000              MOVS     r0,#0
001f08  f7fffffe          BL       LCD_WR_DATA
;;;1387   		LCD_WR_DATA(0xC4);
001f0c  20c4              MOVS     r0,#0xc4
001f0e  f7fffffe          BL       LCD_WR_DATA
;;;1388   		LCD_WR_DATA(0x00);
001f12  2000              MOVS     r0,#0
001f14  f7fffffe          BL       LCD_WR_DATA
;;;1389   		LCD_WR_DATA(0xCD);
001f18  20cd              MOVS     r0,#0xcd
001f1a  f7fffffe          BL       LCD_WR_DATA
;;;1390   		LCD_WR_DATA(0x00);
001f1e  2000              MOVS     r0,#0
001f20  f7fffffe          BL       LCD_WR_DATA
;;;1391   		LCD_WR_DATA(0xD3);
001f24  20d3              MOVS     r0,#0xd3
001f26  f7fffffe          BL       LCD_WR_DATA
;;;1392   		LCD_WR_DATA(0x00);
001f2a  2000              MOVS     r0,#0
001f2c  f7fffffe          BL       LCD_WR_DATA
;;;1393   		LCD_WR_DATA(0xDC);
001f30  20dc              MOVS     r0,#0xdc
001f32  f7fffffe          BL       LCD_WR_DATA
;;;1394   		LCD_WR_DATA(0x00);
001f36  2000              MOVS     r0,#0
001f38  f7fffffe          BL       LCD_WR_DATA
;;;1395   		LCD_WR_DATA(0xF3);
001f3c  20f3              MOVS     r0,#0xf3
001f3e  f7fffffe          BL       LCD_WR_DATA
;;;1396   		LCD_WR_DATA(0x00);
001f42  2000              MOVS     r0,#0
001f44  f7fffffe          BL       LCD_WR_DATA
;;;1397   
;;;1398   		LCD_WR_REG(0xE6);
001f48  20e6              MOVS     r0,#0xe6
001f4a  f7fffffe          BL       LCD_WR_REG
;;;1399   		LCD_WR_DATA(0x11);
001f4e  2011              MOVS     r0,#0x11
001f50  f7fffffe          BL       LCD_WR_DATA
;;;1400   		LCD_WR_DATA(0x00);
001f54  2000              MOVS     r0,#0
001f56  f7fffffe          BL       LCD_WR_DATA
;;;1401   		LCD_WR_DATA(0x34);
001f5a  2034              MOVS     r0,#0x34
001f5c  f7fffffe          BL       LCD_WR_DATA
;;;1402   		LCD_WR_DATA(0x00);
001f60  2000              MOVS     r0,#0
001f62  f7fffffe          BL       LCD_WR_DATA
;;;1403   		LCD_WR_DATA(0x56);
001f66  2056              MOVS     r0,#0x56
001f68  f7fffffe          BL       LCD_WR_DATA
;;;1404   		LCD_WR_DATA(0x00);
001f6c  2000              MOVS     r0,#0
001f6e  f7fffffe          BL       LCD_WR_DATA
;;;1405   		LCD_WR_DATA(0x76);
001f72  2076              MOVS     r0,#0x76
001f74  f7fffffe          BL       LCD_WR_DATA
;;;1406   		LCD_WR_DATA(0x00);
001f78  2000              MOVS     r0,#0
001f7a  f7fffffe          BL       LCD_WR_DATA
;;;1407   		LCD_WR_DATA(0x77);
001f7e  2077              MOVS     r0,#0x77
001f80  f7fffffe          BL       LCD_WR_DATA
;;;1408   		LCD_WR_DATA(0x00);
001f84  2000              MOVS     r0,#0
001f86  f7fffffe          BL       LCD_WR_DATA
;;;1409   		LCD_WR_DATA(0x66);
001f8a  2066              MOVS     r0,#0x66
001f8c  f7fffffe          BL       LCD_WR_DATA
;;;1410   		LCD_WR_DATA(0x00);
001f90  2000              MOVS     r0,#0
001f92  f7fffffe          BL       LCD_WR_DATA
;;;1411   		LCD_WR_DATA(0x88);
001f96  2088              MOVS     r0,#0x88
001f98  f7fffffe          BL       LCD_WR_DATA
;;;1412   		LCD_WR_DATA(0x00);
001f9c  2000              MOVS     r0,#0
001f9e  f7fffffe          BL       LCD_WR_DATA
;;;1413   		LCD_WR_DATA(0x99);
001fa2  2099              MOVS     r0,#0x99
001fa4  f7fffffe          BL       LCD_WR_DATA
;;;1414   		LCD_WR_DATA(0x00);
001fa8  2000              MOVS     r0,#0
001faa  f7fffffe          BL       LCD_WR_DATA
;;;1415   		LCD_WR_DATA(0xBB);
001fae  20bb              MOVS     r0,#0xbb
001fb0  f7fffffe          BL       LCD_WR_DATA
;;;1416   		LCD_WR_DATA(0x00);
001fb4  2000              MOVS     r0,#0
001fb6  f7fffffe          BL       LCD_WR_DATA
;;;1417   		LCD_WR_DATA(0x99);
001fba  2099              MOVS     r0,#0x99
001fbc  f7fffffe          BL       LCD_WR_DATA
;;;1418   		LCD_WR_DATA(0x00);
001fc0  2000              MOVS     r0,#0
001fc2  f7fffffe          BL       LCD_WR_DATA
;;;1419   		LCD_WR_DATA(0x66);
001fc6  2066              MOVS     r0,#0x66
001fc8  f7fffffe          BL       LCD_WR_DATA
;;;1420   		LCD_WR_DATA(0x00);
001fcc  2000              MOVS     r0,#0
001fce  f7fffffe          BL       LCD_WR_DATA
;;;1421   		LCD_WR_DATA(0x55);
001fd2  2055              MOVS     r0,#0x55
001fd4  f7fffffe          BL       LCD_WR_DATA
;;;1422   		LCD_WR_DATA(0x00);
001fd8  2000              MOVS     r0,#0
001fda  f7fffffe          BL       LCD_WR_DATA
;;;1423   		LCD_WR_DATA(0x55);
001fde  2055              MOVS     r0,#0x55
001fe0  f7fffffe          BL       LCD_WR_DATA
;;;1424   		LCD_WR_DATA(0x00);
001fe4  2000              MOVS     r0,#0
001fe6  f7fffffe          BL       LCD_WR_DATA
;;;1425   		LCD_WR_DATA(0x45);
001fea  2045              MOVS     r0,#0x45
001fec  f7fffffe          BL       LCD_WR_DATA
;;;1426   		LCD_WR_DATA(0x00);
001ff0  2000              MOVS     r0,#0
001ff2  f7fffffe          BL       LCD_WR_DATA
;;;1427   		LCD_WR_DATA(0x43);
001ff6  2043              MOVS     r0,#0x43
001ff8  f7fffffe          BL       LCD_WR_DATA
;;;1428   		LCD_WR_DATA(0x00);
001ffc  2000              MOVS     r0,#0
001ffe  f7fffffe          BL       LCD_WR_DATA
;;;1429   		LCD_WR_DATA(0x44);
002002  2044              MOVS     r0,#0x44
002004  f7fffffe          BL       LCD_WR_DATA
;;;1430   		LCD_WR_DATA(0x00);
002008  2000              MOVS     r0,#0
00200a  f7fffffe          BL       LCD_WR_DATA
;;;1431   
;;;1432   		LCD_WR_REG(0xE7);
00200e  20e7              MOVS     r0,#0xe7
002010  f7fffffe          BL       LCD_WR_REG
;;;1433   		LCD_WR_DATA(0x32);
002014  2032              MOVS     r0,#0x32
002016  f7fffffe          BL       LCD_WR_DATA
;;;1434   		LCD_WR_DATA(0x00);
00201a  2000              MOVS     r0,#0
00201c  f7fffffe          BL       LCD_WR_DATA
;;;1435   		LCD_WR_DATA(0x55);
002020  2055              MOVS     r0,#0x55
002022  f7fffffe          BL       LCD_WR_DATA
;;;1436   		LCD_WR_DATA(0x00);
002026  2000              MOVS     r0,#0
002028  f7fffffe          BL       LCD_WR_DATA
;;;1437   		LCD_WR_DATA(0x76);
00202c  2076              MOVS     r0,#0x76
00202e  f7fffffe          BL       LCD_WR_DATA
;;;1438   		LCD_WR_DATA(0x00);
002032  2000              MOVS     r0,#0
002034  f7fffffe          BL       LCD_WR_DATA
;;;1439   		LCD_WR_DATA(0x66);
002038  2066              MOVS     r0,#0x66
00203a  f7fffffe          BL       LCD_WR_DATA
;;;1440   		LCD_WR_DATA(0x00);
00203e  2000              MOVS     r0,#0
002040  f7fffffe          BL       LCD_WR_DATA
;;;1441   		LCD_WR_DATA(0x67);
002044  2067              MOVS     r0,#0x67
002046  f7fffffe          BL       LCD_WR_DATA
;;;1442   		LCD_WR_DATA(0x00);
00204a  2000              MOVS     r0,#0
00204c  f7fffffe          BL       LCD_WR_DATA
;;;1443   		LCD_WR_DATA(0x67);
002050  2067              MOVS     r0,#0x67
002052  f7fffffe          BL       LCD_WR_DATA
;;;1444   		LCD_WR_DATA(0x00);
002056  2000              MOVS     r0,#0
002058  f7fffffe          BL       LCD_WR_DATA
;;;1445   		LCD_WR_DATA(0x87);
00205c  2087              MOVS     r0,#0x87
00205e  f7fffffe          BL       LCD_WR_DATA
;;;1446   		LCD_WR_DATA(0x00);
002062  2000              MOVS     r0,#0
002064  f7fffffe          BL       LCD_WR_DATA
;;;1447   		LCD_WR_DATA(0x99);
002068  2099              MOVS     r0,#0x99
00206a  f7fffffe          BL       LCD_WR_DATA
;;;1448   		LCD_WR_DATA(0x00);
00206e  2000              MOVS     r0,#0
002070  f7fffffe          BL       LCD_WR_DATA
;;;1449   		LCD_WR_DATA(0xBB);
002074  20bb              MOVS     r0,#0xbb
002076  f7fffffe          BL       LCD_WR_DATA
;;;1450   		LCD_WR_DATA(0x00);
00207a  2000              MOVS     r0,#0
00207c  f7fffffe          BL       LCD_WR_DATA
;;;1451   		LCD_WR_DATA(0x99);
002080  2099              MOVS     r0,#0x99
002082  f7fffffe          BL       LCD_WR_DATA
;;;1452   		LCD_WR_DATA(0x00);
002086  2000              MOVS     r0,#0
002088  f7fffffe          BL       LCD_WR_DATA
;;;1453   		LCD_WR_DATA(0x77);
00208c  2077              MOVS     r0,#0x77
00208e  f7fffffe          BL       LCD_WR_DATA
;;;1454   		LCD_WR_DATA(0x00);
002092  2000              MOVS     r0,#0
002094  f7fffffe          BL       LCD_WR_DATA
;;;1455   		LCD_WR_DATA(0x44);
002098  2044              MOVS     r0,#0x44
00209a  f7fffffe          BL       LCD_WR_DATA
;;;1456   		LCD_WR_DATA(0x00);
00209e  2000              MOVS     r0,#0
0020a0  f7fffffe          BL       LCD_WR_DATA
;;;1457   		LCD_WR_DATA(0x56);
0020a4  2056              MOVS     r0,#0x56
0020a6  f7fffffe          BL       LCD_WR_DATA
;;;1458   		LCD_WR_DATA(0x00);
0020aa  2000              MOVS     r0,#0
0020ac  f7fffffe          BL       LCD_WR_DATA
;;;1459   		LCD_WR_DATA(0x23); 
0020b0  2023              MOVS     r0,#0x23
0020b2  f7fffffe          BL       LCD_WR_DATA
;;;1460   		LCD_WR_DATA(0x00);
0020b6  2000              MOVS     r0,#0
0020b8  f7fffffe          BL       LCD_WR_DATA
;;;1461   		LCD_WR_DATA(0x33);
0020bc  2033              MOVS     r0,#0x33
0020be  f7fffffe          BL       LCD_WR_DATA
;;;1462   		LCD_WR_DATA(0x00);
0020c2  2000              MOVS     r0,#0
0020c4  f7fffffe          BL       LCD_WR_DATA
;;;1463   		LCD_WR_DATA(0x45);
0020c8  2045              MOVS     r0,#0x45
0020ca  f7fffffe          BL       LCD_WR_DATA
;;;1464   		LCD_WR_DATA(0x00);
0020ce  2000              MOVS     r0,#0
0020d0  f7fffffe          BL       LCD_WR_DATA
;;;1465   
;;;1466   		LCD_WR_REG(0xE8);
0020d4  20e8              MOVS     r0,#0xe8
0020d6  f7fffffe          BL       LCD_WR_REG
;;;1467   		LCD_WR_DATA(0x00);
0020da  2000              MOVS     r0,#0
0020dc  f7fffffe          BL       LCD_WR_DATA
;;;1468   		LCD_WR_DATA(0x00);
0020e0  2000              MOVS     r0,#0
0020e2  f7fffffe          BL       LCD_WR_DATA
;;;1469   		LCD_WR_DATA(0x99);
0020e6  2099              MOVS     r0,#0x99
0020e8  f7fffffe          BL       LCD_WR_DATA
;;;1470   		LCD_WR_DATA(0x00);
0020ec  2000              MOVS     r0,#0
0020ee  f7fffffe          BL       LCD_WR_DATA
;;;1471   		LCD_WR_DATA(0x87);
0020f2  2087              MOVS     r0,#0x87
0020f4  f7fffffe          BL       LCD_WR_DATA
;;;1472   		LCD_WR_DATA(0x00);
0020f8  2000              MOVS     r0,#0
0020fa  f7fffffe          BL       LCD_WR_DATA
;;;1473   		LCD_WR_DATA(0x88);
0020fe  2088              MOVS     r0,#0x88
002100  f7fffffe          BL       LCD_WR_DATA
;;;1474   		LCD_WR_DATA(0x00);
002104  2000              MOVS     r0,#0
002106  f7fffffe          BL       LCD_WR_DATA
;;;1475   		LCD_WR_DATA(0x77);
00210a  2077              MOVS     r0,#0x77
00210c  f7fffffe          BL       LCD_WR_DATA
;;;1476   		LCD_WR_DATA(0x00);
002110  2000              MOVS     r0,#0
002112  f7fffffe          BL       LCD_WR_DATA
;;;1477   		LCD_WR_DATA(0x66);
002116  2066              MOVS     r0,#0x66
002118  f7fffffe          BL       LCD_WR_DATA
;;;1478   		LCD_WR_DATA(0x00);
00211c  2000              MOVS     r0,#0
00211e  f7fffffe          BL       LCD_WR_DATA
;;;1479   		LCD_WR_DATA(0x88);
002122  2088              MOVS     r0,#0x88
002124  f7fffffe          BL       LCD_WR_DATA
;;;1480   		LCD_WR_DATA(0x00);
002128  2000              MOVS     r0,#0
00212a  f7fffffe          BL       LCD_WR_DATA
;;;1481   		LCD_WR_DATA(0xAA);
00212e  20aa              MOVS     r0,#0xaa
002130  f7fffffe          BL       LCD_WR_DATA
;;;1482   		LCD_WR_DATA(0x00);
002134  2000              MOVS     r0,#0
002136  f7fffffe          BL       LCD_WR_DATA
;;;1483   		LCD_WR_DATA(0xBB);
00213a  20bb              MOVS     r0,#0xbb
00213c  f7fffffe          BL       LCD_WR_DATA
;;;1484   		LCD_WR_DATA(0x00);
002140  2000              MOVS     r0,#0
002142  f7fffffe          BL       LCD_WR_DATA
;;;1485   		LCD_WR_DATA(0x99);
002146  2099              MOVS     r0,#0x99
002148  f7fffffe          BL       LCD_WR_DATA
;;;1486   		LCD_WR_DATA(0x00);
00214c  2000              MOVS     r0,#0
00214e  f7fffffe          BL       LCD_WR_DATA
;;;1487   		LCD_WR_DATA(0x66);
002152  2066              MOVS     r0,#0x66
002154  f7fffffe          BL       LCD_WR_DATA
;;;1488   		LCD_WR_DATA(0x00);
002158  2000              MOVS     r0,#0
00215a  f7fffffe          BL       LCD_WR_DATA
;;;1489   		LCD_WR_DATA(0x55);
00215e  2055              MOVS     r0,#0x55
002160  f7fffffe          BL       LCD_WR_DATA
;;;1490   		LCD_WR_DATA(0x00);
002164  2000              MOVS     r0,#0
002166  f7fffffe          BL       LCD_WR_DATA
;;;1491   		LCD_WR_DATA(0x55);
00216a  2055              MOVS     r0,#0x55
00216c  f7fffffe          BL       LCD_WR_DATA
;;;1492   		LCD_WR_DATA(0x00);
002170  2000              MOVS     r0,#0
002172  f7fffffe          BL       LCD_WR_DATA
;;;1493   		LCD_WR_DATA(0x44);
002176  2044              MOVS     r0,#0x44
002178  f7fffffe          BL       LCD_WR_DATA
;;;1494   		LCD_WR_DATA(0x00);
00217c  2000              MOVS     r0,#0
00217e  f7fffffe          BL       LCD_WR_DATA
;;;1495   		LCD_WR_DATA(0x44);
002182  2044              MOVS     r0,#0x44
002184  f7fffffe          BL       LCD_WR_DATA
;;;1496   		LCD_WR_DATA(0x00);
002188  2000              MOVS     r0,#0
00218a  f7fffffe          BL       LCD_WR_DATA
;;;1497   		LCD_WR_DATA(0x55);
00218e  2055              MOVS     r0,#0x55
002190  f7fffffe          BL       LCD_WR_DATA
;;;1498   		LCD_WR_DATA(0x00);
002194  2000              MOVS     r0,#0
002196  f7fffffe          BL       LCD_WR_DATA
;;;1499   
;;;1500   		LCD_WR_REG(0xE9);
00219a  20e9              MOVS     r0,#0xe9
00219c  f7fffffe          BL       LCD_WR_REG
;;;1501   		LCD_WR_DATA(0xAA);
0021a0  20aa              MOVS     r0,#0xaa
0021a2  f7fffffe          BL       LCD_WR_DATA
;;;1502   		LCD_WR_DATA(0x00);
0021a6  2000              MOVS     r0,#0
0021a8  f7fffffe          BL       LCD_WR_DATA
;;;1503   		LCD_WR_DATA(0x00);
0021ac  2000              MOVS     r0,#0
0021ae  f7fffffe          BL       LCD_WR_DATA
;;;1504   		LCD_WR_DATA(0x00);
0021b2  2000              MOVS     r0,#0
0021b4  f7fffffe          BL       LCD_WR_DATA
;;;1505   
;;;1506   		LCD_WR_REG(0x00);
0021b8  2000              MOVS     r0,#0
0021ba  f7fffffe          BL       LCD_WR_REG
;;;1507   		LCD_WR_DATA(0xAA);
0021be  20aa              MOVS     r0,#0xaa
0021c0  f7fffffe          BL       LCD_WR_DATA
;;;1508   
;;;1509   		LCD_WR_REG(0xCF);
0021c4  20cf              MOVS     r0,#0xcf
0021c6  f7fffffe          BL       LCD_WR_REG
;;;1510   		LCD_WR_DATA(0x00);
0021ca  2000              MOVS     r0,#0
0021cc  f7fffffe          BL       LCD_WR_DATA
;;;1511   		LCD_WR_DATA(0x00);
0021d0  2000              MOVS     r0,#0
0021d2  f7fffffe          BL       LCD_WR_DATA
;;;1512   		LCD_WR_DATA(0x00);
0021d6  2000              MOVS     r0,#0
0021d8  f7fffffe          BL       LCD_WR_DATA
;;;1513   		LCD_WR_DATA(0x00);
0021dc  2000              MOVS     r0,#0
0021de  f7fffffe          BL       LCD_WR_DATA
;;;1514   		LCD_WR_DATA(0x00);
0021e2  2000              MOVS     r0,#0
0021e4  f7fffffe          BL       LCD_WR_DATA
;;;1515   		LCD_WR_DATA(0x00);
0021e8  2000              MOVS     r0,#0
0021ea  f7fffffe          BL       LCD_WR_DATA
;;;1516   		LCD_WR_DATA(0x00);
0021ee  2000              MOVS     r0,#0
0021f0  f7fffffe          BL       LCD_WR_DATA
;;;1517   		LCD_WR_DATA(0x00);
0021f4  2000              MOVS     r0,#0
0021f6  f7fffffe          BL       LCD_WR_DATA
;;;1518   		LCD_WR_DATA(0x00);
0021fa  2000              MOVS     r0,#0
0021fc  f7fffffe          BL       LCD_WR_DATA
;;;1519   		LCD_WR_DATA(0x00);
002200  2000              MOVS     r0,#0
002202  f7fffffe          BL       LCD_WR_DATA
;;;1520   		LCD_WR_DATA(0x00);
002206  2000              MOVS     r0,#0
002208  f7fffffe          BL       LCD_WR_DATA
;;;1521   		LCD_WR_DATA(0x00);
00220c  2000              MOVS     r0,#0
00220e  f7fffffe          BL       LCD_WR_DATA
;;;1522   		LCD_WR_DATA(0x00);
002212  2000              MOVS     r0,#0
002214  f7fffffe          BL       LCD_WR_DATA
;;;1523   		LCD_WR_DATA(0x00);
002218  2000              MOVS     r0,#0
00221a  f7fffffe          BL       LCD_WR_DATA
;;;1524   		LCD_WR_DATA(0x00);
00221e  2000              MOVS     r0,#0
002220  f7fffffe          BL       LCD_WR_DATA
;;;1525   		LCD_WR_DATA(0x00);
002224  2000              MOVS     r0,#0
002226  f7fffffe          BL       LCD_WR_DATA
;;;1526   		LCD_WR_DATA(0x00);
00222a  2000              MOVS     r0,#0
00222c  f7fffffe          BL       LCD_WR_DATA
;;;1527   
;;;1528   		LCD_WR_REG(0xF0);
002230  20f0              MOVS     r0,#0xf0
002232  f7fffffe          BL       LCD_WR_REG
;;;1529   		LCD_WR_DATA(0x00);
002236  2000              MOVS     r0,#0
002238  f7fffffe          BL       LCD_WR_DATA
;;;1530   		LCD_WR_DATA(0x50);
00223c  2050              MOVS     r0,#0x50
00223e  f7fffffe          BL       LCD_WR_DATA
;;;1531   		LCD_WR_DATA(0x00);
002242  2000              MOVS     r0,#0
002244  f7fffffe          BL       LCD_WR_DATA
;;;1532   		LCD_WR_DATA(0x00);
002248  2000              MOVS     r0,#0
00224a  f7fffffe          BL       LCD_WR_DATA
;;;1533   		LCD_WR_DATA(0x00);
00224e  2000              MOVS     r0,#0
002250  f7fffffe          BL       LCD_WR_DATA
;;;1534   
;;;1535   		LCD_WR_REG(0xF3);
002254  20f3              MOVS     r0,#0xf3
002256  f7fffffe          BL       LCD_WR_REG
;;;1536   		LCD_WR_DATA(0x00);
00225a  2000              MOVS     r0,#0
00225c  f7fffffe          BL       LCD_WR_DATA
;;;1537   
;;;1538   		LCD_WR_REG(0xF9);
002260  20f9              MOVS     r0,#0xf9
002262  f7fffffe          BL       LCD_WR_REG
;;;1539   		LCD_WR_DATA(0x06);
002266  2006              MOVS     r0,#6
002268  f7fffffe          BL       LCD_WR_DATA
;;;1540   		LCD_WR_DATA(0x10);
00226c  2010              MOVS     r0,#0x10
00226e  f7fffffe          BL       LCD_WR_DATA
;;;1541   		LCD_WR_DATA(0x29);
002272  2029              MOVS     r0,#0x29
002274  f7fffffe          BL       LCD_WR_DATA
;;;1542   		LCD_WR_DATA(0x00);
002278  2000              MOVS     r0,#0
00227a  f7fffffe          BL       LCD_WR_DATA
;;;1543   
;;;1544   		LCD_WR_REG(0x3A);
00227e  203a              MOVS     r0,#0x3a
002280  f7fffffe          BL       LCD_WR_REG
;;;1545   		LCD_WR_DATA(0x55);	//66
002284  2055              MOVS     r0,#0x55
002286  f7fffffe          BL       LCD_WR_DATA
;;;1546   
;;;1547   		LCD_WR_REG(0x11);
00228a  2011              MOVS     r0,#0x11
00228c  f7fffffe          BL       LCD_WR_REG
;;;1548   		delay_ms(100);
002290  2064              MOVS     r0,#0x64
002292  f7fffffe          BL       delay_ms
;;;1549   		LCD_WR_REG(0x29);
002296  2029              MOVS     r0,#0x29
002298  f7fffffe          BL       LCD_WR_REG
;;;1550   		LCD_WR_REG(0x35);
00229c  2035              MOVS     r0,#0x35
00229e  f7fffffe          BL       LCD_WR_REG
;;;1551   		LCD_WR_DATA(0x00);
0022a2  2000              MOVS     r0,#0
0022a4  f7fffffe          BL       LCD_WR_DATA
;;;1552   
;;;1553   		LCD_WR_REG(0x51);
0022a8  2051              MOVS     r0,#0x51
0022aa  f7fffffe          BL       LCD_WR_REG
;;;1554   		LCD_WR_DATA(0xFF);
0022ae  20ff              MOVS     r0,#0xff
0022b0  f7fffffe          BL       LCD_WR_DATA
;;;1555   		LCD_WR_REG(0x53);
0022b4  2053              MOVS     r0,#0x53
0022b6  f7fffffe          BL       LCD_WR_REG
;;;1556   		LCD_WR_DATA(0x2C);
0022ba  202c              MOVS     r0,#0x2c
0022bc  f7fffffe          BL       LCD_WR_DATA
;;;1557   		LCD_WR_REG(0x55);
0022c0  2055              MOVS     r0,#0x55
0022c2  f7fffffe          BL       LCD_WR_REG
;;;1558   		LCD_WR_DATA(0x82);
0022c6  2082              MOVS     r0,#0x82
0022c8  f7fffffe          BL       LCD_WR_DATA
;;;1559   		LCD_WR_REG(0x2c);
0022cc  202c              MOVS     r0,#0x2c
0022ce  f7fffffe          BL       LCD_WR_REG
0022d2  f002b8e9          B.W      |L1.17576|
                  |L1.8918|
;;;1560   	}else if(lcddev.id==0x5510)
0022d6  48fe              LDR      r0,|L1.9936|
0022d8  8880              LDRH     r0,[r0,#4]  ; lcddev
0022da  f2455110          MOV      r1,#0x5510
0022de  4288              CMP      r0,r1
0022e0  d17e              BNE      |L1.9184|
;;;1561   	{
;;;1562   		LCD_WriteReg(0xF000,0x55);
0022e2  2155              MOVS     r1,#0x55
0022e4  f44f4070          MOV      r0,#0xf000
0022e8  f7fffffe          BL       LCD_WriteReg
;;;1563   		LCD_WriteReg(0xF001,0xAA);
0022ec  21aa              MOVS     r1,#0xaa
0022ee  f24f0001          MOV      r0,#0xf001
0022f2  f7fffffe          BL       LCD_WriteReg
;;;1564   		LCD_WriteReg(0xF002,0x52);
0022f6  2152              MOVS     r1,#0x52
0022f8  f24f0002          MOV      r0,#0xf002
0022fc  f7fffffe          BL       LCD_WriteReg
;;;1565   		LCD_WriteReg(0xF003,0x08);
002300  2108              MOVS     r1,#8
002302  f24f0003          MOV      r0,#0xf003
002306  f7fffffe          BL       LCD_WriteReg
;;;1566   		LCD_WriteReg(0xF004,0x01);
00230a  2101              MOVS     r1,#1
00230c  f24f0004          MOV      r0,#0xf004
002310  f7fffffe          BL       LCD_WriteReg
;;;1567   		//AVDD Set AVDD 5.2V
;;;1568   		LCD_WriteReg(0xB000,0x0D);
002314  210d              MOVS     r1,#0xd
002316  f44f4030          MOV      r0,#0xb000
00231a  f7fffffe          BL       LCD_WriteReg
;;;1569   		LCD_WriteReg(0xB001,0x0D);
00231e  210d              MOVS     r1,#0xd
002320  f24b0001          MOV      r0,#0xb001
002324  f7fffffe          BL       LCD_WriteReg
;;;1570   		LCD_WriteReg(0xB002,0x0D);
002328  210d              MOVS     r1,#0xd
00232a  f24b0002          MOV      r0,#0xb002
00232e  f7fffffe          BL       LCD_WriteReg
;;;1571   		//AVDD ratio
;;;1572   		LCD_WriteReg(0xB600,0x34);
002332  2134              MOVS     r1,#0x34
002334  f44f4036          MOV      r0,#0xb600
002338  f7fffffe          BL       LCD_WriteReg
;;;1573   		LCD_WriteReg(0xB601,0x34);
00233c  2134              MOVS     r1,#0x34
00233e  f24b6001          MOV      r0,#0xb601
002342  f7fffffe          BL       LCD_WriteReg
;;;1574   		LCD_WriteReg(0xB602,0x34);
002346  2134              MOVS     r1,#0x34
002348  f24b6002          MOV      r0,#0xb602
00234c  f7fffffe          BL       LCD_WriteReg
;;;1575   		//AVEE -5.2V
;;;1576   		LCD_WriteReg(0xB100,0x0D);
002350  210d              MOVS     r1,#0xd
002352  f44f4031          MOV      r0,#0xb100
002356  f7fffffe          BL       LCD_WriteReg
;;;1577   		LCD_WriteReg(0xB101,0x0D);
00235a  210d              MOVS     r1,#0xd
00235c  f24b1001          MOV      r0,#0xb101
002360  f7fffffe          BL       LCD_WriteReg
;;;1578   		LCD_WriteReg(0xB102,0x0D);
002364  210d              MOVS     r1,#0xd
002366  f24b1002          MOV      r0,#0xb102
00236a  f7fffffe          BL       LCD_WriteReg
;;;1579   		//AVEE ratio
;;;1580   		LCD_WriteReg(0xB700,0x34);
00236e  2134              MOVS     r1,#0x34
002370  f44f4037          MOV      r0,#0xb700
002374  f7fffffe          BL       LCD_WriteReg
;;;1581   		LCD_WriteReg(0xB701,0x34);
002378  2134              MOVS     r1,#0x34
00237a  f24b7001          MOV      r0,#0xb701
00237e  f7fffffe          BL       LCD_WriteReg
;;;1582   		LCD_WriteReg(0xB702,0x34);
002382  2134              MOVS     r1,#0x34
002384  f24b7002          MOV      r0,#0xb702
002388  f7fffffe          BL       LCD_WriteReg
;;;1583   		//VCL -2.5V
;;;1584   		LCD_WriteReg(0xB200,0x00);
00238c  2100              MOVS     r1,#0
00238e  f44f4032          MOV      r0,#0xb200
002392  f7fffffe          BL       LCD_WriteReg
;;;1585   		LCD_WriteReg(0xB201,0x00);
002396  2100              MOVS     r1,#0
002398  f24b2001          MOV      r0,#0xb201
00239c  f7fffffe          BL       LCD_WriteReg
;;;1586   		LCD_WriteReg(0xB202,0x00);
0023a0  2100              MOVS     r1,#0
0023a2  f24b2002          MOV      r0,#0xb202
0023a6  f7fffffe          BL       LCD_WriteReg
;;;1587   		//VCL ratio
;;;1588   		LCD_WriteReg(0xB800,0x24);
0023aa  2124              MOVS     r1,#0x24
0023ac  f44f4038          MOV      r0,#0xb800
0023b0  f7fffffe          BL       LCD_WriteReg
;;;1589   		LCD_WriteReg(0xB801,0x24);
0023b4  2124              MOVS     r1,#0x24
0023b6  f64b0001          MOV      r0,#0xb801
0023ba  f7fffffe          BL       LCD_WriteReg
;;;1590   		LCD_WriteReg(0xB802,0x24);
0023be  2124              MOVS     r1,#0x24
0023c0  f64b0002          MOV      r0,#0xb802
0023c4  f7fffffe          BL       LCD_WriteReg
;;;1591   		//VGH 15V (Free pump)
;;;1592   		LCD_WriteReg(0xBF00,0x01);
0023c8  2101              MOVS     r1,#1
0023ca  f44f403f          MOV      r0,#0xbf00
0023ce  f7fffffe          BL       LCD_WriteReg
;;;1593   		LCD_WriteReg(0xB300,0x0F);
0023d2  210f              MOVS     r1,#0xf
0023d4  f44f4033          MOV      r0,#0xb300
0023d8  f7fffffe          BL       LCD_WriteReg
;;;1594   		LCD_WriteReg(0xB301,0x0F);
0023dc  210f              MOVS     r1,#0xf
0023de  e000              B        |L1.9186|
                  |L1.9184|
0023e0  e3fe              B        |L1.11232|
                  |L1.9186|
0023e2  f24b3001          MOV      r0,#0xb301
0023e6  f7fffffe          BL       LCD_WriteReg
;;;1595   		LCD_WriteReg(0xB302,0x0F);
0023ea  210f              MOVS     r1,#0xf
0023ec  f24b3002          MOV      r0,#0xb302
0023f0  f7fffffe          BL       LCD_WriteReg
;;;1596   		//VGH ratio
;;;1597   		LCD_WriteReg(0xB900,0x34);
0023f4  2134              MOVS     r1,#0x34
0023f6  f44f4039          MOV      r0,#0xb900
0023fa  f7fffffe          BL       LCD_WriteReg
;;;1598   		LCD_WriteReg(0xB901,0x34);
0023fe  2134              MOVS     r1,#0x34
002400  f64b1001          MOV      r0,#0xb901
002404  f7fffffe          BL       LCD_WriteReg
;;;1599   		LCD_WriteReg(0xB902,0x34);
002408  2134              MOVS     r1,#0x34
00240a  f64b1002          MOV      r0,#0xb902
00240e  f7fffffe          BL       LCD_WriteReg
;;;1600   		//VGL_REG -10V
;;;1601   		LCD_WriteReg(0xB500,0x08);
002412  2108              MOVS     r1,#8
002414  f44f4035          MOV      r0,#0xb500
002418  f7fffffe          BL       LCD_WriteReg
;;;1602   		LCD_WriteReg(0xB501,0x08);
00241c  2108              MOVS     r1,#8
00241e  f24b5001          MOV      r0,#0xb501
002422  f7fffffe          BL       LCD_WriteReg
;;;1603   		LCD_WriteReg(0xB502,0x08);
002426  2108              MOVS     r1,#8
002428  f24b5002          MOV      r0,#0xb502
00242c  f7fffffe          BL       LCD_WriteReg
;;;1604   		LCD_WriteReg(0xC200,0x03);
002430  2103              MOVS     r1,#3
002432  f44f4042          MOV      r0,#0xc200
002436  f7fffffe          BL       LCD_WriteReg
;;;1605   		//VGLX ratio
;;;1606   		LCD_WriteReg(0xBA00,0x24);
00243a  2124              MOVS     r1,#0x24
00243c  f44f403a          MOV      r0,#0xba00
002440  f7fffffe          BL       LCD_WriteReg
;;;1607   		LCD_WriteReg(0xBA01,0x24);
002444  2124              MOVS     r1,#0x24
002446  f64b2001          MOV      r0,#0xba01
00244a  f7fffffe          BL       LCD_WriteReg
;;;1608   		LCD_WriteReg(0xBA02,0x24);
00244e  2124              MOVS     r1,#0x24
002450  f64b2002          MOV      r0,#0xba02
002454  f7fffffe          BL       LCD_WriteReg
;;;1609   		//VGMP/VGSP 4.5V/0V
;;;1610   		LCD_WriteReg(0xBC00,0x00);
002458  2100              MOVS     r1,#0
00245a  f44f403c          MOV      r0,#0xbc00
00245e  f7fffffe          BL       LCD_WriteReg
;;;1611   		LCD_WriteReg(0xBC01,0x78);
002462  2178              MOVS     r1,#0x78
002464  f64b4001          MOV      r0,#0xbc01
002468  f7fffffe          BL       LCD_WriteReg
;;;1612   		LCD_WriteReg(0xBC02,0x00);
00246c  2100              MOVS     r1,#0
00246e  f64b4002          MOV      r0,#0xbc02
002472  f7fffffe          BL       LCD_WriteReg
;;;1613   		//VGMN/VGSN -4.5V/0V
;;;1614   		LCD_WriteReg(0xBD00,0x00);
002476  2100              MOVS     r1,#0
002478  f44f403d          MOV      r0,#0xbd00
00247c  f7fffffe          BL       LCD_WriteReg
;;;1615   		LCD_WriteReg(0xBD01,0x78);
002480  2178              MOVS     r1,#0x78
002482  f64b5001          MOV      r0,#0xbd01
002486  f7fffffe          BL       LCD_WriteReg
;;;1616   		LCD_WriteReg(0xBD02,0x00);
00248a  2100              MOVS     r1,#0
00248c  f64b5002          MOV      r0,#0xbd02
002490  f7fffffe          BL       LCD_WriteReg
;;;1617   		//VCOM
;;;1618   		LCD_WriteReg(0xBE00,0x00);
002494  2100              MOVS     r1,#0
002496  f44f403e          MOV      r0,#0xbe00
00249a  f7fffffe          BL       LCD_WriteReg
;;;1619   		LCD_WriteReg(0xBE01,0x64);
00249e  2164              MOVS     r1,#0x64
0024a0  f64b6001          MOV      r0,#0xbe01
0024a4  f7fffffe          BL       LCD_WriteReg
;;;1620   		//Gamma Setting
;;;1621   		LCD_WriteReg(0xD100,0x00);
0024a8  2100              MOVS     r1,#0
0024aa  f44f4051          MOV      r0,#0xd100
0024ae  f7fffffe          BL       LCD_WriteReg
;;;1622   		LCD_WriteReg(0xD101,0x33);
0024b2  2133              MOVS     r1,#0x33
0024b4  f24d1001          MOV      r0,#0xd101
0024b8  f7fffffe          BL       LCD_WriteReg
;;;1623   		LCD_WriteReg(0xD102,0x00);
0024bc  2100              MOVS     r1,#0
0024be  f24d1002          MOV      r0,#0xd102
0024c2  f7fffffe          BL       LCD_WriteReg
;;;1624   		LCD_WriteReg(0xD103,0x34);
0024c6  2134              MOVS     r1,#0x34
0024c8  f24d1003          MOV      r0,#0xd103
0024cc  f7fffffe          BL       LCD_WriteReg
;;;1625   		LCD_WriteReg(0xD104,0x00);
0024d0  2100              MOVS     r1,#0
0024d2  f24d1004          MOV      r0,#0xd104
0024d6  f7fffffe          BL       LCD_WriteReg
;;;1626   		LCD_WriteReg(0xD105,0x3A);
0024da  213a              MOVS     r1,#0x3a
0024dc  f24d1005          MOV      r0,#0xd105
0024e0  f7fffffe          BL       LCD_WriteReg
;;;1627   		LCD_WriteReg(0xD106,0x00);
0024e4  2100              MOVS     r1,#0
0024e6  f24d1006          MOV      r0,#0xd106
0024ea  f7fffffe          BL       LCD_WriteReg
;;;1628   		LCD_WriteReg(0xD107,0x4A);
0024ee  214a              MOVS     r1,#0x4a
0024f0  f24d1007          MOV      r0,#0xd107
0024f4  f7fffffe          BL       LCD_WriteReg
;;;1629   		LCD_WriteReg(0xD108,0x00);
0024f8  2100              MOVS     r1,#0
0024fa  f24d1008          MOV      r0,#0xd108
0024fe  f7fffffe          BL       LCD_WriteReg
;;;1630   		LCD_WriteReg(0xD109,0x5C);
002502  215c              MOVS     r1,#0x5c
002504  f24d1009          MOV      r0,#0xd109
002508  f7fffffe          BL       LCD_WriteReg
;;;1631   		LCD_WriteReg(0xD10A,0x00);
00250c  2100              MOVS     r1,#0
00250e  f24d100a          MOV      r0,#0xd10a
002512  f7fffffe          BL       LCD_WriteReg
;;;1632   		LCD_WriteReg(0xD10B,0x81);
002516  2181              MOVS     r1,#0x81
002518  f24d100b          MOV      r0,#0xd10b
00251c  f7fffffe          BL       LCD_WriteReg
;;;1633   		LCD_WriteReg(0xD10C,0x00);
002520  2100              MOVS     r1,#0
002522  f24d100c          MOV      r0,#0xd10c
002526  f7fffffe          BL       LCD_WriteReg
;;;1634   		LCD_WriteReg(0xD10D,0xA6);
00252a  21a6              MOVS     r1,#0xa6
00252c  f24d100d          MOV      r0,#0xd10d
002530  f7fffffe          BL       LCD_WriteReg
;;;1635   		LCD_WriteReg(0xD10E,0x00);
002534  2100              MOVS     r1,#0
002536  f24d100e          MOV      r0,#0xd10e
00253a  f7fffffe          BL       LCD_WriteReg
;;;1636   		LCD_WriteReg(0xD10F,0xE5);
00253e  21e5              MOVS     r1,#0xe5
002540  f24d100f          MOV      r0,#0xd10f
002544  f7fffffe          BL       LCD_WriteReg
;;;1637   		LCD_WriteReg(0xD110,0x01);
002548  2101              MOVS     r1,#1
00254a  f24d1010          MOV      r0,#0xd110
00254e  f7fffffe          BL       LCD_WriteReg
;;;1638   		LCD_WriteReg(0xD111,0x13);
002552  2113              MOVS     r1,#0x13
002554  f24d1011          MOV      r0,#0xd111
002558  f7fffffe          BL       LCD_WriteReg
;;;1639   		LCD_WriteReg(0xD112,0x01);
00255c  2101              MOVS     r1,#1
00255e  f24d1012          MOV      r0,#0xd112
002562  f7fffffe          BL       LCD_WriteReg
;;;1640   		LCD_WriteReg(0xD113,0x54);
002566  2154              MOVS     r1,#0x54
002568  f24d1013          MOV      r0,#0xd113
00256c  f7fffffe          BL       LCD_WriteReg
;;;1641   		LCD_WriteReg(0xD114,0x01);
002570  2101              MOVS     r1,#1
002572  f24d1014          MOV      r0,#0xd114
002576  f7fffffe          BL       LCD_WriteReg
;;;1642   		LCD_WriteReg(0xD115,0x82);
00257a  2182              MOVS     r1,#0x82
00257c  f24d1015          MOV      r0,#0xd115
002580  f7fffffe          BL       LCD_WriteReg
;;;1643   		LCD_WriteReg(0xD116,0x01);
002584  2101              MOVS     r1,#1
002586  f24d1016          MOV      r0,#0xd116
00258a  f7fffffe          BL       LCD_WriteReg
;;;1644   		LCD_WriteReg(0xD117,0xCA);
00258e  21ca              MOVS     r1,#0xca
002590  f24d1017          MOV      r0,#0xd117
002594  f7fffffe          BL       LCD_WriteReg
;;;1645   		LCD_WriteReg(0xD118,0x02);
002598  2102              MOVS     r1,#2
00259a  f24d1018          MOV      r0,#0xd118
00259e  f7fffffe          BL       LCD_WriteReg
;;;1646   		LCD_WriteReg(0xD119,0x00);
0025a2  2100              MOVS     r1,#0
0025a4  f24d1019          MOV      r0,#0xd119
0025a8  f7fffffe          BL       LCD_WriteReg
;;;1647   		LCD_WriteReg(0xD11A,0x02);
0025ac  2102              MOVS     r1,#2
0025ae  f24d101a          MOV      r0,#0xd11a
0025b2  f7fffffe          BL       LCD_WriteReg
;;;1648   		LCD_WriteReg(0xD11B,0x01);
0025b6  2101              MOVS     r1,#1
0025b8  f24d101b          MOV      r0,#0xd11b
0025bc  f7fffffe          BL       LCD_WriteReg
;;;1649   		LCD_WriteReg(0xD11C,0x02);
0025c0  2102              MOVS     r1,#2
0025c2  f24d101c          MOV      r0,#0xd11c
0025c6  f7fffffe          BL       LCD_WriteReg
;;;1650   		LCD_WriteReg(0xD11D,0x34);
0025ca  2134              MOVS     r1,#0x34
0025cc  f24d101d          MOV      r0,#0xd11d
0025d0  f7fffffe          BL       LCD_WriteReg
;;;1651   		LCD_WriteReg(0xD11E,0x02);
0025d4  2102              MOVS     r1,#2
0025d6  f24d101e          MOV      r0,#0xd11e
0025da  f7fffffe          BL       LCD_WriteReg
;;;1652   		LCD_WriteReg(0xD11F,0x67);
0025de  2167              MOVS     r1,#0x67
0025e0  f24d101f          MOV      r0,#0xd11f
0025e4  f7fffffe          BL       LCD_WriteReg
;;;1653   		LCD_WriteReg(0xD120,0x02);
0025e8  2102              MOVS     r1,#2
0025ea  f24d1020          MOV      r0,#0xd120
0025ee  f7fffffe          BL       LCD_WriteReg
;;;1654   		LCD_WriteReg(0xD121,0x84);
0025f2  2184              MOVS     r1,#0x84
0025f4  f24d1021          MOV      r0,#0xd121
0025f8  f7fffffe          BL       LCD_WriteReg
;;;1655   		LCD_WriteReg(0xD122,0x02);
0025fc  2102              MOVS     r1,#2
0025fe  f24d1022          MOV      r0,#0xd122
002602  f7fffffe          BL       LCD_WriteReg
;;;1656   		LCD_WriteReg(0xD123,0xA4);
002606  21a4              MOVS     r1,#0xa4
002608  f24d1023          MOV      r0,#0xd123
00260c  f7fffffe          BL       LCD_WriteReg
;;;1657   		LCD_WriteReg(0xD124,0x02);
002610  2102              MOVS     r1,#2
002612  f24d1024          MOV      r0,#0xd124
002616  f7fffffe          BL       LCD_WriteReg
;;;1658   		LCD_WriteReg(0xD125,0xB7);
00261a  21b7              MOVS     r1,#0xb7
00261c  f24d1025          MOV      r0,#0xd125
002620  f7fffffe          BL       LCD_WriteReg
;;;1659   		LCD_WriteReg(0xD126,0x02);
002624  2102              MOVS     r1,#2
002626  f24d1026          MOV      r0,#0xd126
00262a  f7fffffe          BL       LCD_WriteReg
;;;1660   		LCD_WriteReg(0xD127,0xCF);
00262e  21cf              MOVS     r1,#0xcf
002630  f24d1027          MOV      r0,#0xd127
002634  f7fffffe          BL       LCD_WriteReg
;;;1661   		LCD_WriteReg(0xD128,0x02);
002638  2102              MOVS     r1,#2
00263a  f24d1028          MOV      r0,#0xd128
00263e  f7fffffe          BL       LCD_WriteReg
;;;1662   		LCD_WriteReg(0xD129,0xDE);
002642  21de              MOVS     r1,#0xde
002644  f24d1029          MOV      r0,#0xd129
002648  f7fffffe          BL       LCD_WriteReg
;;;1663   		LCD_WriteReg(0xD12A,0x02);
00264c  2102              MOVS     r1,#2
00264e  f24d102a          MOV      r0,#0xd12a
002652  f7fffffe          BL       LCD_WriteReg
;;;1664   		LCD_WriteReg(0xD12B,0xF2);
002656  21f2              MOVS     r1,#0xf2
002658  f24d102b          MOV      r0,#0xd12b
00265c  f7fffffe          BL       LCD_WriteReg
;;;1665   		LCD_WriteReg(0xD12C,0x02);
002660  2102              MOVS     r1,#2
002662  f24d102c          MOV      r0,#0xd12c
002666  f7fffffe          BL       LCD_WriteReg
;;;1666   		LCD_WriteReg(0xD12D,0xFE);
00266a  21fe              MOVS     r1,#0xfe
00266c  f24d102d          MOV      r0,#0xd12d
002670  f7fffffe          BL       LCD_WriteReg
;;;1667   		LCD_WriteReg(0xD12E,0x03);
002674  2103              MOVS     r1,#3
002676  f24d102e          MOV      r0,#0xd12e
00267a  f7fffffe          BL       LCD_WriteReg
;;;1668   		LCD_WriteReg(0xD12F,0x10);
00267e  2110              MOVS     r1,#0x10
002680  f24d102f          MOV      r0,#0xd12f
002684  f7fffffe          BL       LCD_WriteReg
;;;1669   		LCD_WriteReg(0xD130,0x03);
002688  2103              MOVS     r1,#3
00268a  f24d1030          MOV      r0,#0xd130
00268e  f7fffffe          BL       LCD_WriteReg
;;;1670   		LCD_WriteReg(0xD131,0x33);
002692  2133              MOVS     r1,#0x33
002694  f24d1031          MOV      r0,#0xd131
002698  f7fffffe          BL       LCD_WriteReg
;;;1671   		LCD_WriteReg(0xD132,0x03);
00269c  2103              MOVS     r1,#3
00269e  f24d1032          MOV      r0,#0xd132
0026a2  f7fffffe          BL       LCD_WriteReg
;;;1672   		LCD_WriteReg(0xD133,0x6D);
0026a6  216d              MOVS     r1,#0x6d
0026a8  f24d1033          MOV      r0,#0xd133
0026ac  f7fffffe          BL       LCD_WriteReg
;;;1673   		LCD_WriteReg(0xD200,0x00);
0026b0  2100              MOVS     r1,#0
0026b2  f44f4052          MOV      r0,#0xd200
0026b6  f7fffffe          BL       LCD_WriteReg
;;;1674   		LCD_WriteReg(0xD201,0x33);
0026ba  2133              MOVS     r1,#0x33
0026bc  f24d2001          MOV      r0,#0xd201
0026c0  f7fffffe          BL       LCD_WriteReg
;;;1675   		LCD_WriteReg(0xD202,0x00);
0026c4  2100              MOVS     r1,#0
0026c6  f24d2002          MOV      r0,#0xd202
0026ca  f7fffffe          BL       LCD_WriteReg
;;;1676   		LCD_WriteReg(0xD203,0x34);
0026ce  e001              B        |L1.9940|
                  |L1.9936|
                          DCD      lcddev
                  |L1.9940|
0026d4  2134              MOVS     r1,#0x34
0026d6  f24d2003          MOV      r0,#0xd203
0026da  f7fffffe          BL       LCD_WriteReg
;;;1677   		LCD_WriteReg(0xD204,0x00);
0026de  2100              MOVS     r1,#0
0026e0  f24d2004          MOV      r0,#0xd204
0026e4  f7fffffe          BL       LCD_WriteReg
;;;1678   		LCD_WriteReg(0xD205,0x3A);
0026e8  213a              MOVS     r1,#0x3a
0026ea  f24d2005          MOV      r0,#0xd205
0026ee  f7fffffe          BL       LCD_WriteReg
;;;1679   		LCD_WriteReg(0xD206,0x00);
0026f2  2100              MOVS     r1,#0
0026f4  f24d2006          MOV      r0,#0xd206
0026f8  f7fffffe          BL       LCD_WriteReg
;;;1680   		LCD_WriteReg(0xD207,0x4A);
0026fc  214a              MOVS     r1,#0x4a
0026fe  f24d2007          MOV      r0,#0xd207
002702  f7fffffe          BL       LCD_WriteReg
;;;1681   		LCD_WriteReg(0xD208,0x00);
002706  2100              MOVS     r1,#0
002708  f24d2008          MOV      r0,#0xd208
00270c  f7fffffe          BL       LCD_WriteReg
;;;1682   		LCD_WriteReg(0xD209,0x5C);
002710  215c              MOVS     r1,#0x5c
002712  f24d2009          MOV      r0,#0xd209
002716  f7fffffe          BL       LCD_WriteReg
;;;1683   		LCD_WriteReg(0xD20A,0x00);
00271a  2100              MOVS     r1,#0
00271c  f24d200a          MOV      r0,#0xd20a
002720  f7fffffe          BL       LCD_WriteReg
;;;1684   
;;;1685   		LCD_WriteReg(0xD20B,0x81);
002724  2181              MOVS     r1,#0x81
002726  f24d200b          MOV      r0,#0xd20b
00272a  f7fffffe          BL       LCD_WriteReg
;;;1686   		LCD_WriteReg(0xD20C,0x00);
00272e  2100              MOVS     r1,#0
002730  f24d200c          MOV      r0,#0xd20c
002734  f7fffffe          BL       LCD_WriteReg
;;;1687   		LCD_WriteReg(0xD20D,0xA6);
002738  21a6              MOVS     r1,#0xa6
00273a  f24d200d          MOV      r0,#0xd20d
00273e  f7fffffe          BL       LCD_WriteReg
;;;1688   		LCD_WriteReg(0xD20E,0x00);
002742  2100              MOVS     r1,#0
002744  f24d200e          MOV      r0,#0xd20e
002748  f7fffffe          BL       LCD_WriteReg
;;;1689   		LCD_WriteReg(0xD20F,0xE5);
00274c  21e5              MOVS     r1,#0xe5
00274e  f24d200f          MOV      r0,#0xd20f
002752  f7fffffe          BL       LCD_WriteReg
;;;1690   		LCD_WriteReg(0xD210,0x01);
002756  2101              MOVS     r1,#1
002758  f24d2010          MOV      r0,#0xd210
00275c  f7fffffe          BL       LCD_WriteReg
;;;1691   		LCD_WriteReg(0xD211,0x13);
002760  2113              MOVS     r1,#0x13
002762  f24d2011          MOV      r0,#0xd211
002766  f7fffffe          BL       LCD_WriteReg
;;;1692   		LCD_WriteReg(0xD212,0x01);
00276a  2101              MOVS     r1,#1
00276c  f24d2012          MOV      r0,#0xd212
002770  f7fffffe          BL       LCD_WriteReg
;;;1693   		LCD_WriteReg(0xD213,0x54);
002774  2154              MOVS     r1,#0x54
002776  f24d2013          MOV      r0,#0xd213
00277a  f7fffffe          BL       LCD_WriteReg
;;;1694   		LCD_WriteReg(0xD214,0x01);
00277e  2101              MOVS     r1,#1
002780  f24d2014          MOV      r0,#0xd214
002784  f7fffffe          BL       LCD_WriteReg
;;;1695   		LCD_WriteReg(0xD215,0x82);
002788  2182              MOVS     r1,#0x82
00278a  f24d2015          MOV      r0,#0xd215
00278e  f7fffffe          BL       LCD_WriteReg
;;;1696   		LCD_WriteReg(0xD216,0x01);
002792  2101              MOVS     r1,#1
002794  f24d2016          MOV      r0,#0xd216
002798  f7fffffe          BL       LCD_WriteReg
;;;1697   		LCD_WriteReg(0xD217,0xCA);
00279c  21ca              MOVS     r1,#0xca
00279e  f24d2017          MOV      r0,#0xd217
0027a2  f7fffffe          BL       LCD_WriteReg
;;;1698   		LCD_WriteReg(0xD218,0x02);
0027a6  2102              MOVS     r1,#2
0027a8  f24d2018          MOV      r0,#0xd218
0027ac  f7fffffe          BL       LCD_WriteReg
;;;1699   		LCD_WriteReg(0xD219,0x00);
0027b0  2100              MOVS     r1,#0
0027b2  f24d2019          MOV      r0,#0xd219
0027b6  f7fffffe          BL       LCD_WriteReg
;;;1700   		LCD_WriteReg(0xD21A,0x02);
0027ba  2102              MOVS     r1,#2
0027bc  f24d201a          MOV      r0,#0xd21a
0027c0  f7fffffe          BL       LCD_WriteReg
;;;1701   		LCD_WriteReg(0xD21B,0x01);
0027c4  2101              MOVS     r1,#1
0027c6  f24d201b          MOV      r0,#0xd21b
0027ca  f7fffffe          BL       LCD_WriteReg
;;;1702   		LCD_WriteReg(0xD21C,0x02);
0027ce  2102              MOVS     r1,#2
0027d0  f24d201c          MOV      r0,#0xd21c
0027d4  f7fffffe          BL       LCD_WriteReg
;;;1703   		LCD_WriteReg(0xD21D,0x34);
0027d8  2134              MOVS     r1,#0x34
0027da  f24d201d          MOV      r0,#0xd21d
0027de  f7fffffe          BL       LCD_WriteReg
;;;1704   		LCD_WriteReg(0xD21E,0x02);
0027e2  2102              MOVS     r1,#2
0027e4  f24d201e          MOV      r0,#0xd21e
0027e8  f7fffffe          BL       LCD_WriteReg
;;;1705   		LCD_WriteReg(0xD21F,0x67);
0027ec  2167              MOVS     r1,#0x67
0027ee  f24d201f          MOV      r0,#0xd21f
0027f2  f7fffffe          BL       LCD_WriteReg
;;;1706   		LCD_WriteReg(0xD220,0x02);
0027f6  2102              MOVS     r1,#2
0027f8  f24d2020          MOV      r0,#0xd220
0027fc  f7fffffe          BL       LCD_WriteReg
;;;1707   		LCD_WriteReg(0xD221,0x84);
002800  2184              MOVS     r1,#0x84
002802  f24d2021          MOV      r0,#0xd221
002806  f7fffffe          BL       LCD_WriteReg
;;;1708   		LCD_WriteReg(0xD222,0x02);
00280a  2102              MOVS     r1,#2
00280c  f24d2022          MOV      r0,#0xd222
002810  f7fffffe          BL       LCD_WriteReg
;;;1709   		LCD_WriteReg(0xD223,0xA4);
002814  21a4              MOVS     r1,#0xa4
002816  f24d2023          MOV      r0,#0xd223
00281a  f7fffffe          BL       LCD_WriteReg
;;;1710   		LCD_WriteReg(0xD224,0x02);
00281e  2102              MOVS     r1,#2
002820  f24d2024          MOV      r0,#0xd224
002824  f7fffffe          BL       LCD_WriteReg
;;;1711   		LCD_WriteReg(0xD225,0xB7);
002828  21b7              MOVS     r1,#0xb7
00282a  f24d2025          MOV      r0,#0xd225
00282e  f7fffffe          BL       LCD_WriteReg
;;;1712   		LCD_WriteReg(0xD226,0x02);
002832  2102              MOVS     r1,#2
002834  f24d2026          MOV      r0,#0xd226
002838  f7fffffe          BL       LCD_WriteReg
;;;1713   		LCD_WriteReg(0xD227,0xCF);
00283c  21cf              MOVS     r1,#0xcf
00283e  f24d2027          MOV      r0,#0xd227
002842  f7fffffe          BL       LCD_WriteReg
;;;1714   		LCD_WriteReg(0xD228,0x02);
002846  2102              MOVS     r1,#2
002848  f24d2028          MOV      r0,#0xd228
00284c  f7fffffe          BL       LCD_WriteReg
;;;1715   		LCD_WriteReg(0xD229,0xDE);
002850  21de              MOVS     r1,#0xde
002852  f24d2029          MOV      r0,#0xd229
002856  f7fffffe          BL       LCD_WriteReg
;;;1716   		LCD_WriteReg(0xD22A,0x02);
00285a  2102              MOVS     r1,#2
00285c  f24d202a          MOV      r0,#0xd22a
002860  f7fffffe          BL       LCD_WriteReg
;;;1717   		LCD_WriteReg(0xD22B,0xF2);
002864  21f2              MOVS     r1,#0xf2
002866  f24d202b          MOV      r0,#0xd22b
00286a  f7fffffe          BL       LCD_WriteReg
;;;1718   		LCD_WriteReg(0xD22C,0x02);
00286e  2102              MOVS     r1,#2
002870  f24d202c          MOV      r0,#0xd22c
002874  f7fffffe          BL       LCD_WriteReg
;;;1719   		LCD_WriteReg(0xD22D,0xFE);
002878  21fe              MOVS     r1,#0xfe
00287a  f24d202d          MOV      r0,#0xd22d
00287e  f7fffffe          BL       LCD_WriteReg
;;;1720   		LCD_WriteReg(0xD22E,0x03);
002882  2103              MOVS     r1,#3
002884  f24d202e          MOV      r0,#0xd22e
002888  f7fffffe          BL       LCD_WriteReg
;;;1721   		LCD_WriteReg(0xD22F,0x10);
00288c  2110              MOVS     r1,#0x10
00288e  f24d202f          MOV      r0,#0xd22f
002892  f7fffffe          BL       LCD_WriteReg
;;;1722   		LCD_WriteReg(0xD230,0x03);
002896  2103              MOVS     r1,#3
002898  f24d2030          MOV      r0,#0xd230
00289c  f7fffffe          BL       LCD_WriteReg
;;;1723   		LCD_WriteReg(0xD231,0x33);
0028a0  2133              MOVS     r1,#0x33
0028a2  f24d2031          MOV      r0,#0xd231
0028a6  f7fffffe          BL       LCD_WriteReg
;;;1724   		LCD_WriteReg(0xD232,0x03);
0028aa  2103              MOVS     r1,#3
0028ac  f24d2032          MOV      r0,#0xd232
0028b0  f7fffffe          BL       LCD_WriteReg
;;;1725   		LCD_WriteReg(0xD233,0x6D);
0028b4  216d              MOVS     r1,#0x6d
0028b6  f24d2033          MOV      r0,#0xd233
0028ba  f7fffffe          BL       LCD_WriteReg
;;;1726   		LCD_WriteReg(0xD300,0x00);
0028be  2100              MOVS     r1,#0
0028c0  f44f4053          MOV      r0,#0xd300
0028c4  f7fffffe          BL       LCD_WriteReg
;;;1727   		LCD_WriteReg(0xD301,0x33);
0028c8  2133              MOVS     r1,#0x33
0028ca  f24d3001          MOV      r0,#0xd301
0028ce  f7fffffe          BL       LCD_WriteReg
;;;1728   		LCD_WriteReg(0xD302,0x00);
0028d2  2100              MOVS     r1,#0
0028d4  f24d3002          MOV      r0,#0xd302
0028d8  f7fffffe          BL       LCD_WriteReg
;;;1729   		LCD_WriteReg(0xD303,0x34);
0028dc  2134              MOVS     r1,#0x34
0028de  f24d3003          MOV      r0,#0xd303
0028e2  f7fffffe          BL       LCD_WriteReg
;;;1730   		LCD_WriteReg(0xD304,0x00);
0028e6  2100              MOVS     r1,#0
0028e8  f24d3004          MOV      r0,#0xd304
0028ec  f7fffffe          BL       LCD_WriteReg
;;;1731   		LCD_WriteReg(0xD305,0x3A);
0028f0  213a              MOVS     r1,#0x3a
0028f2  f24d3005          MOV      r0,#0xd305
0028f6  f7fffffe          BL       LCD_WriteReg
;;;1732   		LCD_WriteReg(0xD306,0x00);
0028fa  2100              MOVS     r1,#0
0028fc  f24d3006          MOV      r0,#0xd306
002900  f7fffffe          BL       LCD_WriteReg
;;;1733   		LCD_WriteReg(0xD307,0x4A);
002904  214a              MOVS     r1,#0x4a
002906  f24d3007          MOV      r0,#0xd307
00290a  f7fffffe          BL       LCD_WriteReg
;;;1734   		LCD_WriteReg(0xD308,0x00);
00290e  2100              MOVS     r1,#0
002910  f24d3008          MOV      r0,#0xd308
002914  f7fffffe          BL       LCD_WriteReg
;;;1735   		LCD_WriteReg(0xD309,0x5C);
002918  215c              MOVS     r1,#0x5c
00291a  f24d3009          MOV      r0,#0xd309
00291e  f7fffffe          BL       LCD_WriteReg
;;;1736   		LCD_WriteReg(0xD30A,0x00);
002922  2100              MOVS     r1,#0
002924  f24d300a          MOV      r0,#0xd30a
002928  f7fffffe          BL       LCD_WriteReg
;;;1737   
;;;1738   		LCD_WriteReg(0xD30B,0x81);
00292c  2181              MOVS     r1,#0x81
00292e  f24d300b          MOV      r0,#0xd30b
002932  f7fffffe          BL       LCD_WriteReg
;;;1739   		LCD_WriteReg(0xD30C,0x00);
002936  2100              MOVS     r1,#0
002938  f24d300c          MOV      r0,#0xd30c
00293c  f7fffffe          BL       LCD_WriteReg
;;;1740   		LCD_WriteReg(0xD30D,0xA6);
002940  21a6              MOVS     r1,#0xa6
002942  f24d300d          MOV      r0,#0xd30d
002946  f7fffffe          BL       LCD_WriteReg
;;;1741   		LCD_WriteReg(0xD30E,0x00);
00294a  2100              MOVS     r1,#0
00294c  f24d300e          MOV      r0,#0xd30e
002950  f7fffffe          BL       LCD_WriteReg
;;;1742   		LCD_WriteReg(0xD30F,0xE5);
002954  21e5              MOVS     r1,#0xe5
002956  f24d300f          MOV      r0,#0xd30f
00295a  f7fffffe          BL       LCD_WriteReg
;;;1743   		LCD_WriteReg(0xD310,0x01);
00295e  2101              MOVS     r1,#1
002960  f24d3010          MOV      r0,#0xd310
002964  f7fffffe          BL       LCD_WriteReg
;;;1744   		LCD_WriteReg(0xD311,0x13);
002968  2113              MOVS     r1,#0x13
00296a  f24d3011          MOV      r0,#0xd311
00296e  f7fffffe          BL       LCD_WriteReg
;;;1745   		LCD_WriteReg(0xD312,0x01);
002972  2101              MOVS     r1,#1
002974  f24d3012          MOV      r0,#0xd312
002978  f7fffffe          BL       LCD_WriteReg
;;;1746   		LCD_WriteReg(0xD313,0x54);
00297c  2154              MOVS     r1,#0x54
00297e  f24d3013          MOV      r0,#0xd313
002982  f7fffffe          BL       LCD_WriteReg
;;;1747   		LCD_WriteReg(0xD314,0x01);
002986  2101              MOVS     r1,#1
002988  f24d3014          MOV      r0,#0xd314
00298c  f7fffffe          BL       LCD_WriteReg
;;;1748   		LCD_WriteReg(0xD315,0x82);
002990  2182              MOVS     r1,#0x82
002992  f24d3015          MOV      r0,#0xd315
002996  f7fffffe          BL       LCD_WriteReg
;;;1749   		LCD_WriteReg(0xD316,0x01);
00299a  2101              MOVS     r1,#1
00299c  f24d3016          MOV      r0,#0xd316
0029a0  f7fffffe          BL       LCD_WriteReg
;;;1750   		LCD_WriteReg(0xD317,0xCA);
0029a4  21ca              MOVS     r1,#0xca
0029a6  f24d3017          MOV      r0,#0xd317
0029aa  f7fffffe          BL       LCD_WriteReg
;;;1751   		LCD_WriteReg(0xD318,0x02);
0029ae  2102              MOVS     r1,#2
0029b0  f24d3018          MOV      r0,#0xd318
0029b4  f7fffffe          BL       LCD_WriteReg
;;;1752   		LCD_WriteReg(0xD319,0x00);
0029b8  2100              MOVS     r1,#0
0029ba  f24d3019          MOV      r0,#0xd319
0029be  f7fffffe          BL       LCD_WriteReg
;;;1753   		LCD_WriteReg(0xD31A,0x02);
0029c2  2102              MOVS     r1,#2
0029c4  f24d301a          MOV      r0,#0xd31a
0029c8  f7fffffe          BL       LCD_WriteReg
;;;1754   		LCD_WriteReg(0xD31B,0x01);
0029cc  2101              MOVS     r1,#1
0029ce  f24d301b          MOV      r0,#0xd31b
0029d2  f7fffffe          BL       LCD_WriteReg
;;;1755   		LCD_WriteReg(0xD31C,0x02);
0029d6  2102              MOVS     r1,#2
0029d8  f24d301c          MOV      r0,#0xd31c
0029dc  f7fffffe          BL       LCD_WriteReg
;;;1756   		LCD_WriteReg(0xD31D,0x34);
0029e0  2134              MOVS     r1,#0x34
0029e2  f24d301d          MOV      r0,#0xd31d
0029e6  f7fffffe          BL       LCD_WriteReg
;;;1757   		LCD_WriteReg(0xD31E,0x02);
0029ea  2102              MOVS     r1,#2
0029ec  f24d301e          MOV      r0,#0xd31e
0029f0  f7fffffe          BL       LCD_WriteReg
;;;1758   		LCD_WriteReg(0xD31F,0x67);
0029f4  2167              MOVS     r1,#0x67
0029f6  f24d301f          MOV      r0,#0xd31f
0029fa  f7fffffe          BL       LCD_WriteReg
;;;1759   		LCD_WriteReg(0xD320,0x02);
0029fe  2102              MOVS     r1,#2
002a00  f24d3020          MOV      r0,#0xd320
002a04  f7fffffe          BL       LCD_WriteReg
;;;1760   		LCD_WriteReg(0xD321,0x84);
002a08  2184              MOVS     r1,#0x84
002a0a  f24d3021          MOV      r0,#0xd321
002a0e  f7fffffe          BL       LCD_WriteReg
;;;1761   		LCD_WriteReg(0xD322,0x02);
002a12  2102              MOVS     r1,#2
002a14  f24d3022          MOV      r0,#0xd322
002a18  f7fffffe          BL       LCD_WriteReg
;;;1762   		LCD_WriteReg(0xD323,0xA4);
002a1c  21a4              MOVS     r1,#0xa4
002a1e  f24d3023          MOV      r0,#0xd323
002a22  f7fffffe          BL       LCD_WriteReg
;;;1763   		LCD_WriteReg(0xD324,0x02);
002a26  2102              MOVS     r1,#2
002a28  f24d3024          MOV      r0,#0xd324
002a2c  f7fffffe          BL       LCD_WriteReg
;;;1764   		LCD_WriteReg(0xD325,0xB7);
002a30  21b7              MOVS     r1,#0xb7
002a32  f24d3025          MOV      r0,#0xd325
002a36  f7fffffe          BL       LCD_WriteReg
;;;1765   		LCD_WriteReg(0xD326,0x02);
002a3a  2102              MOVS     r1,#2
002a3c  f24d3026          MOV      r0,#0xd326
002a40  f7fffffe          BL       LCD_WriteReg
;;;1766   		LCD_WriteReg(0xD327,0xCF);
002a44  21cf              MOVS     r1,#0xcf
002a46  f24d3027          MOV      r0,#0xd327
002a4a  f7fffffe          BL       LCD_WriteReg
;;;1767   		LCD_WriteReg(0xD328,0x02);
002a4e  2102              MOVS     r1,#2
002a50  f24d3028          MOV      r0,#0xd328
002a54  f7fffffe          BL       LCD_WriteReg
;;;1768   		LCD_WriteReg(0xD329,0xDE);
002a58  21de              MOVS     r1,#0xde
002a5a  f24d3029          MOV      r0,#0xd329
002a5e  f7fffffe          BL       LCD_WriteReg
;;;1769   		LCD_WriteReg(0xD32A,0x02);
002a62  2102              MOVS     r1,#2
002a64  f24d302a          MOV      r0,#0xd32a
002a68  f7fffffe          BL       LCD_WriteReg
;;;1770   		LCD_WriteReg(0xD32B,0xF2);
002a6c  21f2              MOVS     r1,#0xf2
002a6e  f24d302b          MOV      r0,#0xd32b
002a72  f7fffffe          BL       LCD_WriteReg
;;;1771   		LCD_WriteReg(0xD32C,0x02);
002a76  2102              MOVS     r1,#2
002a78  f24d302c          MOV      r0,#0xd32c
002a7c  f7fffffe          BL       LCD_WriteReg
;;;1772   		LCD_WriteReg(0xD32D,0xFE);
002a80  21fe              MOVS     r1,#0xfe
002a82  f24d302d          MOV      r0,#0xd32d
002a86  f7fffffe          BL       LCD_WriteReg
;;;1773   		LCD_WriteReg(0xD32E,0x03);
002a8a  2103              MOVS     r1,#3
002a8c  f24d302e          MOV      r0,#0xd32e
002a90  f7fffffe          BL       LCD_WriteReg
;;;1774   		LCD_WriteReg(0xD32F,0x10);
002a94  2110              MOVS     r1,#0x10
002a96  f24d302f          MOV      r0,#0xd32f
002a9a  f7fffffe          BL       LCD_WriteReg
;;;1775   		LCD_WriteReg(0xD330,0x03);
002a9e  2103              MOVS     r1,#3
002aa0  f24d3030          MOV      r0,#0xd330
002aa4  f7fffffe          BL       LCD_WriteReg
;;;1776   		LCD_WriteReg(0xD331,0x33);
002aa8  2133              MOVS     r1,#0x33
002aaa  f24d3031          MOV      r0,#0xd331
002aae  f7fffffe          BL       LCD_WriteReg
;;;1777   		LCD_WriteReg(0xD332,0x03);
002ab2  2103              MOVS     r1,#3
002ab4  f24d3032          MOV      r0,#0xd332
002ab8  f7fffffe          BL       LCD_WriteReg
;;;1778   		LCD_WriteReg(0xD333,0x6D);
002abc  216d              MOVS     r1,#0x6d
002abe  f24d3033          MOV      r0,#0xd333
002ac2  f7fffffe          BL       LCD_WriteReg
;;;1779   		LCD_WriteReg(0xD400,0x00);
002ac6  2100              MOVS     r1,#0
002ac8  f44f4054          MOV      r0,#0xd400
002acc  f7fffffe          BL       LCD_WriteReg
;;;1780   		LCD_WriteReg(0xD401,0x33);
002ad0  2133              MOVS     r1,#0x33
002ad2  f24d4001          MOV      r0,#0xd401
002ad6  f7fffffe          BL       LCD_WriteReg
;;;1781   		LCD_WriteReg(0xD402,0x00);
002ada  2100              MOVS     r1,#0
002adc  f24d4002          MOV      r0,#0xd402
002ae0  f7fffffe          BL       LCD_WriteReg
;;;1782   		LCD_WriteReg(0xD403,0x34);
002ae4  2134              MOVS     r1,#0x34
002ae6  f24d4003          MOV      r0,#0xd403
002aea  f7fffffe          BL       LCD_WriteReg
;;;1783   		LCD_WriteReg(0xD404,0x00);
002aee  2100              MOVS     r1,#0
002af0  f24d4004          MOV      r0,#0xd404
002af4  f7fffffe          BL       LCD_WriteReg
;;;1784   		LCD_WriteReg(0xD405,0x3A);
002af8  213a              MOVS     r1,#0x3a
002afa  f24d4005          MOV      r0,#0xd405
002afe  f7fffffe          BL       LCD_WriteReg
;;;1785   		LCD_WriteReg(0xD406,0x00);
002b02  2100              MOVS     r1,#0
002b04  f24d4006          MOV      r0,#0xd406
002b08  f7fffffe          BL       LCD_WriteReg
;;;1786   		LCD_WriteReg(0xD407,0x4A);
002b0c  214a              MOVS     r1,#0x4a
002b0e  f24d4007          MOV      r0,#0xd407
002b12  f7fffffe          BL       LCD_WriteReg
;;;1787   		LCD_WriteReg(0xD408,0x00);
002b16  2100              MOVS     r1,#0
002b18  f24d4008          MOV      r0,#0xd408
002b1c  f7fffffe          BL       LCD_WriteReg
;;;1788   		LCD_WriteReg(0xD409,0x5C);
002b20  215c              MOVS     r1,#0x5c
002b22  f24d4009          MOV      r0,#0xd409
002b26  f7fffffe          BL       LCD_WriteReg
;;;1789   		LCD_WriteReg(0xD40A,0x00);
002b2a  2100              MOVS     r1,#0
002b2c  f24d400a          MOV      r0,#0xd40a
002b30  f7fffffe          BL       LCD_WriteReg
;;;1790   		LCD_WriteReg(0xD40B,0x81);
002b34  2181              MOVS     r1,#0x81
002b36  f24d400b          MOV      r0,#0xd40b
002b3a  f7fffffe          BL       LCD_WriteReg
;;;1791   
;;;1792   		LCD_WriteReg(0xD40C,0x00);
002b3e  2100              MOVS     r1,#0
002b40  f24d400c          MOV      r0,#0xd40c
002b44  f7fffffe          BL       LCD_WriteReg
;;;1793   		LCD_WriteReg(0xD40D,0xA6);
002b48  21a6              MOVS     r1,#0xa6
002b4a  f24d400d          MOV      r0,#0xd40d
002b4e  f7fffffe          BL       LCD_WriteReg
;;;1794   		LCD_WriteReg(0xD40E,0x00);
002b52  2100              MOVS     r1,#0
002b54  f24d400e          MOV      r0,#0xd40e
002b58  f7fffffe          BL       LCD_WriteReg
;;;1795   		LCD_WriteReg(0xD40F,0xE5);
002b5c  21e5              MOVS     r1,#0xe5
002b5e  f24d400f          MOV      r0,#0xd40f
002b62  f7fffffe          BL       LCD_WriteReg
;;;1796   		LCD_WriteReg(0xD410,0x01);
002b66  2101              MOVS     r1,#1
002b68  f24d4010          MOV      r0,#0xd410
002b6c  f7fffffe          BL       LCD_WriteReg
;;;1797   		LCD_WriteReg(0xD411,0x13);
002b70  2113              MOVS     r1,#0x13
002b72  f24d4011          MOV      r0,#0xd411
002b76  f7fffffe          BL       LCD_WriteReg
;;;1798   		LCD_WriteReg(0xD412,0x01);
002b7a  2101              MOVS     r1,#1
002b7c  f24d4012          MOV      r0,#0xd412
002b80  f7fffffe          BL       LCD_WriteReg
;;;1799   		LCD_WriteReg(0xD413,0x54);
002b84  2154              MOVS     r1,#0x54
002b86  f24d4013          MOV      r0,#0xd413
002b8a  f7fffffe          BL       LCD_WriteReg
;;;1800   		LCD_WriteReg(0xD414,0x01);
002b8e  2101              MOVS     r1,#1
002b90  f24d4014          MOV      r0,#0xd414
002b94  f7fffffe          BL       LCD_WriteReg
;;;1801   		LCD_WriteReg(0xD415,0x82);
002b98  2182              MOVS     r1,#0x82
002b9a  f24d4015          MOV      r0,#0xd415
002b9e  f7fffffe          BL       LCD_WriteReg
;;;1802   		LCD_WriteReg(0xD416,0x01);
002ba2  2101              MOVS     r1,#1
002ba4  f24d4016          MOV      r0,#0xd416
002ba8  f7fffffe          BL       LCD_WriteReg
;;;1803   		LCD_WriteReg(0xD417,0xCA);
002bac  21ca              MOVS     r1,#0xca
002bae  f24d4017          MOV      r0,#0xd417
002bb2  f7fffffe          BL       LCD_WriteReg
;;;1804   		LCD_WriteReg(0xD418,0x02);
002bb6  2102              MOVS     r1,#2
002bb8  f24d4018          MOV      r0,#0xd418
002bbc  f7fffffe          BL       LCD_WriteReg
;;;1805   		LCD_WriteReg(0xD419,0x00);
002bc0  2100              MOVS     r1,#0
002bc2  f24d4019          MOV      r0,#0xd419
002bc6  f7fffffe          BL       LCD_WriteReg
;;;1806   		LCD_WriteReg(0xD41A,0x02);
002bca  2102              MOVS     r1,#2
002bcc  f24d401a          MOV      r0,#0xd41a
002bd0  f7fffffe          BL       LCD_WriteReg
;;;1807   		LCD_WriteReg(0xD41B,0x01);
002bd4  2101              MOVS     r1,#1
002bd6  f24d401b          MOV      r0,#0xd41b
002bda  f7fffffe          BL       LCD_WriteReg
;;;1808   		LCD_WriteReg(0xD41C,0x02);
002bde  e000              B        |L1.11234|
                  |L1.11232|
002be0  e304              B        |L1.12780|
                  |L1.11234|
002be2  2102              MOVS     r1,#2
002be4  f24d401c          MOV      r0,#0xd41c
002be8  f7fffffe          BL       LCD_WriteReg
;;;1809   		LCD_WriteReg(0xD41D,0x34);
002bec  2134              MOVS     r1,#0x34
002bee  f24d401d          MOV      r0,#0xd41d
002bf2  f7fffffe          BL       LCD_WriteReg
;;;1810   		LCD_WriteReg(0xD41E,0x02);
002bf6  2102              MOVS     r1,#2
002bf8  f24d401e          MOV      r0,#0xd41e
002bfc  f7fffffe          BL       LCD_WriteReg
;;;1811   		LCD_WriteReg(0xD41F,0x67);
002c00  2167              MOVS     r1,#0x67
002c02  f24d401f          MOV      r0,#0xd41f
002c06  f7fffffe          BL       LCD_WriteReg
;;;1812   		LCD_WriteReg(0xD420,0x02);
002c0a  2102              MOVS     r1,#2
002c0c  f24d4020          MOV      r0,#0xd420
002c10  f7fffffe          BL       LCD_WriteReg
;;;1813   		LCD_WriteReg(0xD421,0x84);
002c14  2184              MOVS     r1,#0x84
002c16  f24d4021          MOV      r0,#0xd421
002c1a  f7fffffe          BL       LCD_WriteReg
;;;1814   		LCD_WriteReg(0xD422,0x02);
002c1e  2102              MOVS     r1,#2
002c20  f24d4022          MOV      r0,#0xd422
002c24  f7fffffe          BL       LCD_WriteReg
;;;1815   		LCD_WriteReg(0xD423,0xA4);
002c28  21a4              MOVS     r1,#0xa4
002c2a  f24d4023          MOV      r0,#0xd423
002c2e  f7fffffe          BL       LCD_WriteReg
;;;1816   		LCD_WriteReg(0xD424,0x02);
002c32  2102              MOVS     r1,#2
002c34  f24d4024          MOV      r0,#0xd424
002c38  f7fffffe          BL       LCD_WriteReg
;;;1817   		LCD_WriteReg(0xD425,0xB7);
002c3c  21b7              MOVS     r1,#0xb7
002c3e  f24d4025          MOV      r0,#0xd425
002c42  f7fffffe          BL       LCD_WriteReg
;;;1818   		LCD_WriteReg(0xD426,0x02);
002c46  2102              MOVS     r1,#2
002c48  f24d4026          MOV      r0,#0xd426
002c4c  f7fffffe          BL       LCD_WriteReg
;;;1819   		LCD_WriteReg(0xD427,0xCF);
002c50  21cf              MOVS     r1,#0xcf
002c52  f24d4027          MOV      r0,#0xd427
002c56  f7fffffe          BL       LCD_WriteReg
;;;1820   		LCD_WriteReg(0xD428,0x02);
002c5a  2102              MOVS     r1,#2
002c5c  f24d4028          MOV      r0,#0xd428
002c60  f7fffffe          BL       LCD_WriteReg
;;;1821   		LCD_WriteReg(0xD429,0xDE);
002c64  21de              MOVS     r1,#0xde
002c66  f24d4029          MOV      r0,#0xd429
002c6a  f7fffffe          BL       LCD_WriteReg
;;;1822   		LCD_WriteReg(0xD42A,0x02);
002c6e  2102              MOVS     r1,#2
002c70  f24d402a          MOV      r0,#0xd42a
002c74  f7fffffe          BL       LCD_WriteReg
;;;1823   		LCD_WriteReg(0xD42B,0xF2);
002c78  21f2              MOVS     r1,#0xf2
002c7a  f24d402b          MOV      r0,#0xd42b
002c7e  f7fffffe          BL       LCD_WriteReg
;;;1824   		LCD_WriteReg(0xD42C,0x02);
002c82  2102              MOVS     r1,#2
002c84  f24d402c          MOV      r0,#0xd42c
002c88  f7fffffe          BL       LCD_WriteReg
;;;1825   		LCD_WriteReg(0xD42D,0xFE);
002c8c  21fe              MOVS     r1,#0xfe
002c8e  f24d402d          MOV      r0,#0xd42d
002c92  f7fffffe          BL       LCD_WriteReg
;;;1826   		LCD_WriteReg(0xD42E,0x03);
002c96  2103              MOVS     r1,#3
002c98  f24d402e          MOV      r0,#0xd42e
002c9c  f7fffffe          BL       LCD_WriteReg
;;;1827   		LCD_WriteReg(0xD42F,0x10);
002ca0  2110              MOVS     r1,#0x10
002ca2  f24d402f          MOV      r0,#0xd42f
002ca6  f7fffffe          BL       LCD_WriteReg
;;;1828   		LCD_WriteReg(0xD430,0x03);
002caa  2103              MOVS     r1,#3
002cac  f24d4030          MOV      r0,#0xd430
002cb0  f7fffffe          BL       LCD_WriteReg
;;;1829   		LCD_WriteReg(0xD431,0x33);
002cb4  2133              MOVS     r1,#0x33
002cb6  f24d4031          MOV      r0,#0xd431
002cba  f7fffffe          BL       LCD_WriteReg
;;;1830   		LCD_WriteReg(0xD432,0x03);
002cbe  2103              MOVS     r1,#3
002cc0  f24d4032          MOV      r0,#0xd432
002cc4  f7fffffe          BL       LCD_WriteReg
;;;1831   		LCD_WriteReg(0xD433,0x6D);
002cc8  216d              MOVS     r1,#0x6d
002cca  f24d4033          MOV      r0,#0xd433
002cce  f7fffffe          BL       LCD_WriteReg
;;;1832   		LCD_WriteReg(0xD500,0x00);
002cd2  2100              MOVS     r1,#0
002cd4  f44f4055          MOV      r0,#0xd500
002cd8  f7fffffe          BL       LCD_WriteReg
;;;1833   		LCD_WriteReg(0xD501,0x33);
002cdc  2133              MOVS     r1,#0x33
002cde  f24d5001          MOV      r0,#0xd501
002ce2  f7fffffe          BL       LCD_WriteReg
;;;1834   		LCD_WriteReg(0xD502,0x00);
002ce6  2100              MOVS     r1,#0
002ce8  f24d5002          MOV      r0,#0xd502
002cec  f7fffffe          BL       LCD_WriteReg
;;;1835   		LCD_WriteReg(0xD503,0x34);
002cf0  2134              MOVS     r1,#0x34
002cf2  f24d5003          MOV      r0,#0xd503
002cf6  f7fffffe          BL       LCD_WriteReg
;;;1836   		LCD_WriteReg(0xD504,0x00);
002cfa  2100              MOVS     r1,#0
002cfc  f24d5004          MOV      r0,#0xd504
002d00  f7fffffe          BL       LCD_WriteReg
;;;1837   		LCD_WriteReg(0xD505,0x3A);
002d04  213a              MOVS     r1,#0x3a
002d06  f24d5005          MOV      r0,#0xd505
002d0a  f7fffffe          BL       LCD_WriteReg
;;;1838   		LCD_WriteReg(0xD506,0x00);
002d0e  2100              MOVS     r1,#0
002d10  f24d5006          MOV      r0,#0xd506
002d14  f7fffffe          BL       LCD_WriteReg
;;;1839   		LCD_WriteReg(0xD507,0x4A);
002d18  214a              MOVS     r1,#0x4a
002d1a  f24d5007          MOV      r0,#0xd507
002d1e  f7fffffe          BL       LCD_WriteReg
;;;1840   		LCD_WriteReg(0xD508,0x00);
002d22  2100              MOVS     r1,#0
002d24  f24d5008          MOV      r0,#0xd508
002d28  f7fffffe          BL       LCD_WriteReg
;;;1841   		LCD_WriteReg(0xD509,0x5C);
002d2c  215c              MOVS     r1,#0x5c
002d2e  f24d5009          MOV      r0,#0xd509
002d32  f7fffffe          BL       LCD_WriteReg
;;;1842   		LCD_WriteReg(0xD50A,0x00);
002d36  2100              MOVS     r1,#0
002d38  f24d500a          MOV      r0,#0xd50a
002d3c  f7fffffe          BL       LCD_WriteReg
;;;1843   		LCD_WriteReg(0xD50B,0x81);
002d40  2181              MOVS     r1,#0x81
002d42  f24d500b          MOV      r0,#0xd50b
002d46  f7fffffe          BL       LCD_WriteReg
;;;1844   
;;;1845   		LCD_WriteReg(0xD50C,0x00);
002d4a  2100              MOVS     r1,#0
002d4c  f24d500c          MOV      r0,#0xd50c
002d50  f7fffffe          BL       LCD_WriteReg
;;;1846   		LCD_WriteReg(0xD50D,0xA6);
002d54  21a6              MOVS     r1,#0xa6
002d56  f24d500d          MOV      r0,#0xd50d
002d5a  f7fffffe          BL       LCD_WriteReg
;;;1847   		LCD_WriteReg(0xD50E,0x00);
002d5e  2100              MOVS     r1,#0
002d60  f24d500e          MOV      r0,#0xd50e
002d64  f7fffffe          BL       LCD_WriteReg
;;;1848   		LCD_WriteReg(0xD50F,0xE5);
002d68  21e5              MOVS     r1,#0xe5
002d6a  f24d500f          MOV      r0,#0xd50f
002d6e  f7fffffe          BL       LCD_WriteReg
;;;1849   		LCD_WriteReg(0xD510,0x01);
002d72  2101              MOVS     r1,#1
002d74  f24d5010          MOV      r0,#0xd510
002d78  f7fffffe          BL       LCD_WriteReg
;;;1850   		LCD_WriteReg(0xD511,0x13);
002d7c  2113              MOVS     r1,#0x13
002d7e  f24d5011          MOV      r0,#0xd511
002d82  f7fffffe          BL       LCD_WriteReg
;;;1851   		LCD_WriteReg(0xD512,0x01);
002d86  2101              MOVS     r1,#1
002d88  f24d5012          MOV      r0,#0xd512
002d8c  f7fffffe          BL       LCD_WriteReg
;;;1852   		LCD_WriteReg(0xD513,0x54);
002d90  2154              MOVS     r1,#0x54
002d92  f24d5013          MOV      r0,#0xd513
002d96  f7fffffe          BL       LCD_WriteReg
;;;1853   		LCD_WriteReg(0xD514,0x01);
002d9a  2101              MOVS     r1,#1
002d9c  f24d5014          MOV      r0,#0xd514
002da0  f7fffffe          BL       LCD_WriteReg
;;;1854   		LCD_WriteReg(0xD515,0x82);
002da4  2182              MOVS     r1,#0x82
002da6  f24d5015          MOV      r0,#0xd515
002daa  f7fffffe          BL       LCD_WriteReg
;;;1855   		LCD_WriteReg(0xD516,0x01);
002dae  2101              MOVS     r1,#1
002db0  f24d5016          MOV      r0,#0xd516
002db4  f7fffffe          BL       LCD_WriteReg
;;;1856   		LCD_WriteReg(0xD517,0xCA);
002db8  21ca              MOVS     r1,#0xca
002dba  f24d5017          MOV      r0,#0xd517
002dbe  f7fffffe          BL       LCD_WriteReg
;;;1857   		LCD_WriteReg(0xD518,0x02);
002dc2  2102              MOVS     r1,#2
002dc4  f24d5018          MOV      r0,#0xd518
002dc8  f7fffffe          BL       LCD_WriteReg
;;;1858   		LCD_WriteReg(0xD519,0x00);
002dcc  2100              MOVS     r1,#0
002dce  f24d5019          MOV      r0,#0xd519
002dd2  f7fffffe          BL       LCD_WriteReg
;;;1859   		LCD_WriteReg(0xD51A,0x02);
002dd6  2102              MOVS     r1,#2
002dd8  f24d501a          MOV      r0,#0xd51a
002ddc  f7fffffe          BL       LCD_WriteReg
;;;1860   		LCD_WriteReg(0xD51B,0x01);
002de0  2101              MOVS     r1,#1
002de2  f24d501b          MOV      r0,#0xd51b
002de6  f7fffffe          BL       LCD_WriteReg
;;;1861   		LCD_WriteReg(0xD51C,0x02);
002dea  2102              MOVS     r1,#2
002dec  f24d501c          MOV      r0,#0xd51c
002df0  f7fffffe          BL       LCD_WriteReg
;;;1862   		LCD_WriteReg(0xD51D,0x34);
002df4  2134              MOVS     r1,#0x34
002df6  f24d501d          MOV      r0,#0xd51d
002dfa  f7fffffe          BL       LCD_WriteReg
;;;1863   		LCD_WriteReg(0xD51E,0x02);
002dfe  2102              MOVS     r1,#2
002e00  f24d501e          MOV      r0,#0xd51e
002e04  f7fffffe          BL       LCD_WriteReg
;;;1864   		LCD_WriteReg(0xD51F,0x67);
002e08  2167              MOVS     r1,#0x67
002e0a  f24d501f          MOV      r0,#0xd51f
002e0e  f7fffffe          BL       LCD_WriteReg
;;;1865   		LCD_WriteReg(0xD520,0x02);
002e12  2102              MOVS     r1,#2
002e14  f24d5020          MOV      r0,#0xd520
002e18  f7fffffe          BL       LCD_WriteReg
;;;1866   		LCD_WriteReg(0xD521,0x84);
002e1c  2184              MOVS     r1,#0x84
002e1e  f24d5021          MOV      r0,#0xd521
002e22  f7fffffe          BL       LCD_WriteReg
;;;1867   		LCD_WriteReg(0xD522,0x02);
002e26  2102              MOVS     r1,#2
002e28  f24d5022          MOV      r0,#0xd522
002e2c  f7fffffe          BL       LCD_WriteReg
;;;1868   		LCD_WriteReg(0xD523,0xA4);
002e30  21a4              MOVS     r1,#0xa4
002e32  f24d5023          MOV      r0,#0xd523
002e36  f7fffffe          BL       LCD_WriteReg
;;;1869   		LCD_WriteReg(0xD524,0x02);
002e3a  2102              MOVS     r1,#2
002e3c  f24d5024          MOV      r0,#0xd524
002e40  f7fffffe          BL       LCD_WriteReg
;;;1870   		LCD_WriteReg(0xD525,0xB7);
002e44  21b7              MOVS     r1,#0xb7
002e46  f24d5025          MOV      r0,#0xd525
002e4a  f7fffffe          BL       LCD_WriteReg
;;;1871   		LCD_WriteReg(0xD526,0x02);
002e4e  2102              MOVS     r1,#2
002e50  f24d5026          MOV      r0,#0xd526
002e54  f7fffffe          BL       LCD_WriteReg
;;;1872   		LCD_WriteReg(0xD527,0xCF);
002e58  21cf              MOVS     r1,#0xcf
002e5a  f24d5027          MOV      r0,#0xd527
002e5e  f7fffffe          BL       LCD_WriteReg
;;;1873   		LCD_WriteReg(0xD528,0x02);
002e62  2102              MOVS     r1,#2
002e64  f24d5028          MOV      r0,#0xd528
002e68  f7fffffe          BL       LCD_WriteReg
;;;1874   		LCD_WriteReg(0xD529,0xDE);
002e6c  21de              MOVS     r1,#0xde
002e6e  f24d5029          MOV      r0,#0xd529
002e72  f7fffffe          BL       LCD_WriteReg
;;;1875   		LCD_WriteReg(0xD52A,0x02);
002e76  2102              MOVS     r1,#2
002e78  f24d502a          MOV      r0,#0xd52a
002e7c  f7fffffe          BL       LCD_WriteReg
;;;1876   		LCD_WriteReg(0xD52B,0xF2);
002e80  21f2              MOVS     r1,#0xf2
002e82  f24d502b          MOV      r0,#0xd52b
002e86  f7fffffe          BL       LCD_WriteReg
;;;1877   		LCD_WriteReg(0xD52C,0x02);
002e8a  2102              MOVS     r1,#2
002e8c  f24d502c          MOV      r0,#0xd52c
002e90  f7fffffe          BL       LCD_WriteReg
;;;1878   		LCD_WriteReg(0xD52D,0xFE);
002e94  21fe              MOVS     r1,#0xfe
002e96  f24d502d          MOV      r0,#0xd52d
002e9a  f7fffffe          BL       LCD_WriteReg
;;;1879   		LCD_WriteReg(0xD52E,0x03);
002e9e  2103              MOVS     r1,#3
002ea0  f24d502e          MOV      r0,#0xd52e
002ea4  f7fffffe          BL       LCD_WriteReg
;;;1880   		LCD_WriteReg(0xD52F,0x10);
002ea8  2110              MOVS     r1,#0x10
002eaa  f24d502f          MOV      r0,#0xd52f
002eae  f7fffffe          BL       LCD_WriteReg
;;;1881   		LCD_WriteReg(0xD530,0x03);
002eb2  2103              MOVS     r1,#3
002eb4  f24d5030          MOV      r0,#0xd530
002eb8  f7fffffe          BL       LCD_WriteReg
;;;1882   		LCD_WriteReg(0xD531,0x33);
002ebc  2133              MOVS     r1,#0x33
002ebe  f24d5031          MOV      r0,#0xd531
002ec2  f7fffffe          BL       LCD_WriteReg
;;;1883   		LCD_WriteReg(0xD532,0x03);
002ec6  2103              MOVS     r1,#3
002ec8  f24d5032          MOV      r0,#0xd532
002ecc  f7fffffe          BL       LCD_WriteReg
;;;1884   		LCD_WriteReg(0xD533,0x6D);
002ed0  216d              MOVS     r1,#0x6d
002ed2  f24d5033          MOV      r0,#0xd533
002ed6  f7fffffe          BL       LCD_WriteReg
;;;1885   		LCD_WriteReg(0xD600,0x00);
002eda  2100              MOVS     r1,#0
002edc  f44f4056          MOV      r0,#0xd600
002ee0  f7fffffe          BL       LCD_WriteReg
;;;1886   		LCD_WriteReg(0xD601,0x33);
002ee4  2133              MOVS     r1,#0x33
002ee6  f24d6001          MOV      r0,#0xd601
002eea  f7fffffe          BL       LCD_WriteReg
;;;1887   		LCD_WriteReg(0xD602,0x00);
002eee  2100              MOVS     r1,#0
002ef0  f24d6002          MOV      r0,#0xd602
002ef4  f7fffffe          BL       LCD_WriteReg
;;;1888   		LCD_WriteReg(0xD603,0x34);
002ef8  2134              MOVS     r1,#0x34
002efa  f24d6003          MOV      r0,#0xd603
002efe  f7fffffe          BL       LCD_WriteReg
;;;1889   		LCD_WriteReg(0xD604,0x00);
002f02  2100              MOVS     r1,#0
002f04  f24d6004          MOV      r0,#0xd604
002f08  f7fffffe          BL       LCD_WriteReg
;;;1890   		LCD_WriteReg(0xD605,0x3A);
002f0c  213a              MOVS     r1,#0x3a
002f0e  f24d6005          MOV      r0,#0xd605
002f12  f7fffffe          BL       LCD_WriteReg
;;;1891   		LCD_WriteReg(0xD606,0x00);
002f16  2100              MOVS     r1,#0
002f18  f24d6006          MOV      r0,#0xd606
002f1c  f7fffffe          BL       LCD_WriteReg
;;;1892   		LCD_WriteReg(0xD607,0x4A);
002f20  214a              MOVS     r1,#0x4a
002f22  f24d6007          MOV      r0,#0xd607
002f26  f7fffffe          BL       LCD_WriteReg
;;;1893   		LCD_WriteReg(0xD608,0x00);
002f2a  2100              MOVS     r1,#0
002f2c  f24d6008          MOV      r0,#0xd608
002f30  f7fffffe          BL       LCD_WriteReg
;;;1894   		LCD_WriteReg(0xD609,0x5C);
002f34  215c              MOVS     r1,#0x5c
002f36  f24d6009          MOV      r0,#0xd609
002f3a  f7fffffe          BL       LCD_WriteReg
;;;1895   		LCD_WriteReg(0xD60A,0x00);
002f3e  2100              MOVS     r1,#0
002f40  f24d600a          MOV      r0,#0xd60a
002f44  f7fffffe          BL       LCD_WriteReg
;;;1896   		LCD_WriteReg(0xD60B,0x81);
002f48  2181              MOVS     r1,#0x81
002f4a  f24d600b          MOV      r0,#0xd60b
002f4e  f7fffffe          BL       LCD_WriteReg
;;;1897   
;;;1898   		LCD_WriteReg(0xD60C,0x00);
002f52  2100              MOVS     r1,#0
002f54  f24d600c          MOV      r0,#0xd60c
002f58  f7fffffe          BL       LCD_WriteReg
;;;1899   		LCD_WriteReg(0xD60D,0xA6);
002f5c  21a6              MOVS     r1,#0xa6
002f5e  f24d600d          MOV      r0,#0xd60d
002f62  f7fffffe          BL       LCD_WriteReg
;;;1900   		LCD_WriteReg(0xD60E,0x00);
002f66  2100              MOVS     r1,#0
002f68  f24d600e          MOV      r0,#0xd60e
002f6c  f7fffffe          BL       LCD_WriteReg
;;;1901   		LCD_WriteReg(0xD60F,0xE5);
002f70  21e5              MOVS     r1,#0xe5
002f72  f24d600f          MOV      r0,#0xd60f
002f76  f7fffffe          BL       LCD_WriteReg
;;;1902   		LCD_WriteReg(0xD610,0x01);
002f7a  2101              MOVS     r1,#1
002f7c  f24d6010          MOV      r0,#0xd610
002f80  f7fffffe          BL       LCD_WriteReg
;;;1903   		LCD_WriteReg(0xD611,0x13);
002f84  2113              MOVS     r1,#0x13
002f86  f24d6011          MOV      r0,#0xd611
002f8a  f7fffffe          BL       LCD_WriteReg
;;;1904   		LCD_WriteReg(0xD612,0x01);
002f8e  2101              MOVS     r1,#1
002f90  f24d6012          MOV      r0,#0xd612
002f94  f7fffffe          BL       LCD_WriteReg
;;;1905   		LCD_WriteReg(0xD613,0x54);
002f98  2154              MOVS     r1,#0x54
002f9a  f24d6013          MOV      r0,#0xd613
002f9e  f7fffffe          BL       LCD_WriteReg
;;;1906   		LCD_WriteReg(0xD614,0x01);
002fa2  2101              MOVS     r1,#1
002fa4  f24d6014          MOV      r0,#0xd614
002fa8  f7fffffe          BL       LCD_WriteReg
;;;1907   		LCD_WriteReg(0xD615,0x82);
002fac  2182              MOVS     r1,#0x82
002fae  f24d6015          MOV      r0,#0xd615
002fb2  f7fffffe          BL       LCD_WriteReg
;;;1908   		LCD_WriteReg(0xD616,0x01);
002fb6  2101              MOVS     r1,#1
002fb8  f24d6016          MOV      r0,#0xd616
002fbc  f7fffffe          BL       LCD_WriteReg
;;;1909   		LCD_WriteReg(0xD617,0xCA);
002fc0  21ca              MOVS     r1,#0xca
002fc2  f24d6017          MOV      r0,#0xd617
002fc6  f7fffffe          BL       LCD_WriteReg
;;;1910   		LCD_WriteReg(0xD618,0x02);
002fca  2102              MOVS     r1,#2
002fcc  f24d6018          MOV      r0,#0xd618
002fd0  f7fffffe          BL       LCD_WriteReg
;;;1911   		LCD_WriteReg(0xD619,0x00);
002fd4  2100              MOVS     r1,#0
002fd6  f24d6019          MOV      r0,#0xd619
002fda  f7fffffe          BL       LCD_WriteReg
;;;1912   		LCD_WriteReg(0xD61A,0x02);
002fde  2102              MOVS     r1,#2
002fe0  f24d601a          MOV      r0,#0xd61a
002fe4  f7fffffe          BL       LCD_WriteReg
;;;1913   		LCD_WriteReg(0xD61B,0x01);
002fe8  2101              MOVS     r1,#1
002fea  f24d601b          MOV      r0,#0xd61b
002fee  f7fffffe          BL       LCD_WriteReg
;;;1914   		LCD_WriteReg(0xD61C,0x02);
002ff2  2102              MOVS     r1,#2
002ff4  f24d601c          MOV      r0,#0xd61c
002ff8  f7fffffe          BL       LCD_WriteReg
;;;1915   		LCD_WriteReg(0xD61D,0x34);
002ffc  2134              MOVS     r1,#0x34
002ffe  f24d601d          MOV      r0,#0xd61d
003002  f7fffffe          BL       LCD_WriteReg
;;;1916   		LCD_WriteReg(0xD61E,0x02);
003006  2102              MOVS     r1,#2
003008  f24d601e          MOV      r0,#0xd61e
00300c  f7fffffe          BL       LCD_WriteReg
;;;1917   		LCD_WriteReg(0xD61F,0x67);
003010  2167              MOVS     r1,#0x67
003012  f24d601f          MOV      r0,#0xd61f
003016  f7fffffe          BL       LCD_WriteReg
;;;1918   		LCD_WriteReg(0xD620,0x02);
00301a  2102              MOVS     r1,#2
00301c  f24d6020          MOV      r0,#0xd620
003020  f7fffffe          BL       LCD_WriteReg
;;;1919   		LCD_WriteReg(0xD621,0x84);
003024  2184              MOVS     r1,#0x84
003026  f24d6021          MOV      r0,#0xd621
00302a  f7fffffe          BL       LCD_WriteReg
;;;1920   		LCD_WriteReg(0xD622,0x02);
00302e  2102              MOVS     r1,#2
003030  f24d6022          MOV      r0,#0xd622
003034  f7fffffe          BL       LCD_WriteReg
;;;1921   		LCD_WriteReg(0xD623,0xA4);
003038  21a4              MOVS     r1,#0xa4
00303a  f24d6023          MOV      r0,#0xd623
00303e  f7fffffe          BL       LCD_WriteReg
;;;1922   		LCD_WriteReg(0xD624,0x02);
003042  2102              MOVS     r1,#2
003044  f24d6024          MOV      r0,#0xd624
003048  f7fffffe          BL       LCD_WriteReg
;;;1923   		LCD_WriteReg(0xD625,0xB7);
00304c  21b7              MOVS     r1,#0xb7
00304e  f24d6025          MOV      r0,#0xd625
003052  f7fffffe          BL       LCD_WriteReg
;;;1924   		LCD_WriteReg(0xD626,0x02);
003056  2102              MOVS     r1,#2
003058  f24d6026          MOV      r0,#0xd626
00305c  f7fffffe          BL       LCD_WriteReg
;;;1925   		LCD_WriteReg(0xD627,0xCF);
003060  21cf              MOVS     r1,#0xcf
003062  f24d6027          MOV      r0,#0xd627
003066  f7fffffe          BL       LCD_WriteReg
;;;1926   		LCD_WriteReg(0xD628,0x02);
00306a  2102              MOVS     r1,#2
00306c  f24d6028          MOV      r0,#0xd628
003070  f7fffffe          BL       LCD_WriteReg
;;;1927   		LCD_WriteReg(0xD629,0xDE);
003074  21de              MOVS     r1,#0xde
003076  f24d6029          MOV      r0,#0xd629
00307a  f7fffffe          BL       LCD_WriteReg
;;;1928   		LCD_WriteReg(0xD62A,0x02);
00307e  2102              MOVS     r1,#2
003080  f24d602a          MOV      r0,#0xd62a
003084  f7fffffe          BL       LCD_WriteReg
;;;1929   		LCD_WriteReg(0xD62B,0xF2);
003088  21f2              MOVS     r1,#0xf2
00308a  f24d602b          MOV      r0,#0xd62b
00308e  f7fffffe          BL       LCD_WriteReg
;;;1930   		LCD_WriteReg(0xD62C,0x02);
003092  2102              MOVS     r1,#2
003094  f24d602c          MOV      r0,#0xd62c
003098  f7fffffe          BL       LCD_WriteReg
;;;1931   		LCD_WriteReg(0xD62D,0xFE);
00309c  21fe              MOVS     r1,#0xfe
00309e  f24d602d          MOV      r0,#0xd62d
0030a2  f7fffffe          BL       LCD_WriteReg
;;;1932   		LCD_WriteReg(0xD62E,0x03);
0030a6  2103              MOVS     r1,#3
0030a8  f24d602e          MOV      r0,#0xd62e
0030ac  f7fffffe          BL       LCD_WriteReg
;;;1933   		LCD_WriteReg(0xD62F,0x10);
0030b0  2110              MOVS     r1,#0x10
0030b2  f24d602f          MOV      r0,#0xd62f
0030b6  f7fffffe          BL       LCD_WriteReg
;;;1934   		LCD_WriteReg(0xD630,0x03);
0030ba  2103              MOVS     r1,#3
0030bc  f24d6030          MOV      r0,#0xd630
0030c0  f7fffffe          BL       LCD_WriteReg
;;;1935   		LCD_WriteReg(0xD631,0x33);
0030c4  2133              MOVS     r1,#0x33
0030c6  f24d6031          MOV      r0,#0xd631
0030ca  f7fffffe          BL       LCD_WriteReg
;;;1936   		LCD_WriteReg(0xD632,0x03);
0030ce  2103              MOVS     r1,#3
0030d0  f24d6032          MOV      r0,#0xd632
0030d4  f7fffffe          BL       LCD_WriteReg
;;;1937   		LCD_WriteReg(0xD633,0x6D);
0030d8  216d              MOVS     r1,#0x6d
0030da  f24d6033          MOV      r0,#0xd633
0030de  f7fffffe          BL       LCD_WriteReg
;;;1938   		//LV2 Page 0 enable
;;;1939   		LCD_WriteReg(0xF000,0x55);
0030e2  2155              MOVS     r1,#0x55
0030e4  f44f4070          MOV      r0,#0xf000
0030e8  f7fffffe          BL       LCD_WriteReg
;;;1940   		LCD_WriteReg(0xF001,0xAA);
0030ec  21aa              MOVS     r1,#0xaa
0030ee  f24f0001          MOV      r0,#0xf001
0030f2  f7fffffe          BL       LCD_WriteReg
;;;1941   		LCD_WriteReg(0xF002,0x52);
0030f6  2152              MOVS     r1,#0x52
0030f8  f24f0002          MOV      r0,#0xf002
0030fc  f7fffffe          BL       LCD_WriteReg
;;;1942   		LCD_WriteReg(0xF003,0x08);
003100  2108              MOVS     r1,#8
003102  f24f0003          MOV      r0,#0xf003
003106  f7fffffe          BL       LCD_WriteReg
;;;1943   		LCD_WriteReg(0xF004,0x00);
00310a  2100              MOVS     r1,#0
00310c  f24f0004          MOV      r0,#0xf004
003110  f7fffffe          BL       LCD_WriteReg
;;;1944   		//Display control
;;;1945   		LCD_WriteReg(0xB100, 0xCC);
003114  21cc              MOVS     r1,#0xcc
003116  f44f4031          MOV      r0,#0xb100
00311a  f7fffffe          BL       LCD_WriteReg
;;;1946   		LCD_WriteReg(0xB101, 0x00);
00311e  2100              MOVS     r1,#0
003120  f24b1001          MOV      r0,#0xb101
003124  f7fffffe          BL       LCD_WriteReg
;;;1947   		//Source hold time
;;;1948   		LCD_WriteReg(0xB600,0x05);
003128  2105              MOVS     r1,#5
00312a  f44f4036          MOV      r0,#0xb600
00312e  f7fffffe          BL       LCD_WriteReg
;;;1949   		//Gate EQ control
;;;1950   		LCD_WriteReg(0xB700,0x70);
003132  2170              MOVS     r1,#0x70
003134  f44f4037          MOV      r0,#0xb700
003138  f7fffffe          BL       LCD_WriteReg
;;;1951   		LCD_WriteReg(0xB701,0x70);
00313c  2170              MOVS     r1,#0x70
00313e  f24b7001          MOV      r0,#0xb701
003142  f7fffffe          BL       LCD_WriteReg
;;;1952   		//Source EQ control (Mode 2)
;;;1953   		LCD_WriteReg(0xB800,0x01);
003146  2101              MOVS     r1,#1
003148  f44f4038          MOV      r0,#0xb800
00314c  f7fffffe          BL       LCD_WriteReg
;;;1954   		LCD_WriteReg(0xB801,0x03);
003150  2103              MOVS     r1,#3
003152  f64b0001          MOV      r0,#0xb801
003156  f7fffffe          BL       LCD_WriteReg
;;;1955   		LCD_WriteReg(0xB802,0x03);
00315a  2103              MOVS     r1,#3
00315c  f64b0002          MOV      r0,#0xb802
003160  f7fffffe          BL       LCD_WriteReg
;;;1956   		LCD_WriteReg(0xB803,0x03);
003164  2103              MOVS     r1,#3
003166  f64b0003          MOV      r0,#0xb803
00316a  f7fffffe          BL       LCD_WriteReg
;;;1957   		//Inversion mode (2-dot)
;;;1958   		LCD_WriteReg(0xBC00,0x02);
00316e  2102              MOVS     r1,#2
003170  f44f403c          MOV      r0,#0xbc00
003174  f7fffffe          BL       LCD_WriteReg
;;;1959   		LCD_WriteReg(0xBC01,0x00);
003178  2100              MOVS     r1,#0
00317a  f64b4001          MOV      r0,#0xbc01
00317e  f7fffffe          BL       LCD_WriteReg
;;;1960   		LCD_WriteReg(0xBC02,0x00);
003182  2100              MOVS     r1,#0
003184  f64b4002          MOV      r0,#0xbc02
003188  f7fffffe          BL       LCD_WriteReg
;;;1961   		//Timing control 4H w/ 4-delay
;;;1962   		LCD_WriteReg(0xC900,0xD0);
00318c  21d0              MOVS     r1,#0xd0
00318e  f44f4049          MOV      r0,#0xc900
003192  f7fffffe          BL       LCD_WriteReg
;;;1963   		LCD_WriteReg(0xC901,0x02);
003196  2102              MOVS     r1,#2
003198  f64c1001          MOV      r0,#0xc901
00319c  f7fffffe          BL       LCD_WriteReg
;;;1964   		LCD_WriteReg(0xC902,0x50);
0031a0  2150              MOVS     r1,#0x50
0031a2  f64c1002          MOV      r0,#0xc902
0031a6  f7fffffe          BL       LCD_WriteReg
;;;1965   		LCD_WriteReg(0xC903,0x50);
0031aa  2150              MOVS     r1,#0x50
0031ac  f64c1003          MOV      r0,#0xc903
0031b0  f7fffffe          BL       LCD_WriteReg
;;;1966   		LCD_WriteReg(0xC904,0x50);
0031b4  2150              MOVS     r1,#0x50
0031b6  f64c1004          MOV      r0,#0xc904
0031ba  f7fffffe          BL       LCD_WriteReg
;;;1967   		LCD_WriteReg(0x3500,0x00);
0031be  2100              MOVS     r1,#0
0031c0  f44f5054          MOV      r0,#0x3500
0031c4  f7fffffe          BL       LCD_WriteReg
;;;1968   		LCD_WriteReg(0x3A00,0x55);  //16-bit/pixel
0031c8  2155              MOVS     r1,#0x55
0031ca  f44f5068          MOV      r0,#0x3a00
0031ce  f7fffffe          BL       LCD_WriteReg
;;;1969   		LCD_WR_REG(0x1100);
0031d2  f44f5088          MOV      r0,#0x1100
0031d6  f7fffffe          BL       LCD_WR_REG
;;;1970   		delay_us(120);
0031da  2078              MOVS     r0,#0x78
0031dc  f7fffffe          BL       delay_us
;;;1971   		LCD_WR_REG(0x2900);
0031e0  f44f5024          MOV      r0,#0x2900
0031e4  f7fffffe          BL       LCD_WR_REG
                  |L1.12776|
0031e8  f001b95e          B.W      |L1.17576|
                  |L1.12780|
;;;1972   	}else if(lcddev.id==0x9325)//9325
0031ec  48fe              LDR      r0,|L1.13800|
0031ee  8880              LDRH     r0,[r0,#4]  ; lcddev
0031f0  f2493125          MOV      r1,#0x9325
0031f4  4288              CMP      r0,r1
0031f6  d17d              BNE      |L1.13044|
;;;1973   	{
;;;1974   		LCD_WriteReg(0x00E5,0x78F0); 
0031f8  f64701f0          MOV      r1,#0x78f0
0031fc  20e5              MOVS     r0,#0xe5
0031fe  f7fffffe          BL       LCD_WriteReg
;;;1975   		LCD_WriteReg(0x0001,0x0100); 
003202  f44f7180          MOV      r1,#0x100
003206  2001              MOVS     r0,#1
003208  f7fffffe          BL       LCD_WriteReg
;;;1976   		LCD_WriteReg(0x0002,0x0700); 
00320c  f44f61e0          MOV      r1,#0x700
003210  2002              MOVS     r0,#2
003212  f7fffffe          BL       LCD_WriteReg
;;;1977   		LCD_WriteReg(0x0003,0x1030); 
003216  f2410130          MOV      r1,#0x1030
00321a  2003              MOVS     r0,#3
00321c  f7fffffe          BL       LCD_WriteReg
;;;1978   		LCD_WriteReg(0x0004,0x0000); 
003220  2100              MOVS     r1,#0
003222  2004              MOVS     r0,#4
003224  f7fffffe          BL       LCD_WriteReg
;;;1979   		LCD_WriteReg(0x0008,0x0202);  
003228  f2402102          MOV      r1,#0x202
00322c  2008              MOVS     r0,#8
00322e  f7fffffe          BL       LCD_WriteReg
;;;1980   		LCD_WriteReg(0x0009,0x0000);
003232  2100              MOVS     r1,#0
003234  2009              MOVS     r0,#9
003236  f7fffffe          BL       LCD_WriteReg
;;;1981   		LCD_WriteReg(0x000A,0x0000); 
00323a  2100              MOVS     r1,#0
00323c  200a              MOVS     r0,#0xa
00323e  f7fffffe          BL       LCD_WriteReg
;;;1982   		LCD_WriteReg(0x000C,0x0000); 
003242  2100              MOVS     r1,#0
003244  200c              MOVS     r0,#0xc
003246  f7fffffe          BL       LCD_WriteReg
;;;1983   		LCD_WriteReg(0x000D,0x0000);
00324a  2100              MOVS     r1,#0
00324c  200d              MOVS     r0,#0xd
00324e  f7fffffe          BL       LCD_WriteReg
;;;1984   		LCD_WriteReg(0x000F,0x0000);
003252  2100              MOVS     r1,#0
003254  200f              MOVS     r0,#0xf
003256  f7fffffe          BL       LCD_WriteReg
;;;1985   		//power on sequence VGHVGL
;;;1986   		LCD_WriteReg(0x0010,0x0000);   
00325a  2100              MOVS     r1,#0
00325c  2010              MOVS     r0,#0x10
00325e  f7fffffe          BL       LCD_WriteReg
;;;1987   		LCD_WriteReg(0x0011,0x0007);  
003262  2107              MOVS     r1,#7
003264  2011              MOVS     r0,#0x11
003266  f7fffffe          BL       LCD_WriteReg
;;;1988   		LCD_WriteReg(0x0012,0x0000);  
00326a  2100              MOVS     r1,#0
00326c  2012              MOVS     r0,#0x12
00326e  f7fffffe          BL       LCD_WriteReg
;;;1989   		LCD_WriteReg(0x0013,0x0000); 
003272  2100              MOVS     r1,#0
003274  2013              MOVS     r0,#0x13
003276  f7fffffe          BL       LCD_WriteReg
;;;1990   		LCD_WriteReg(0x0007,0x0000); 
00327a  2100              MOVS     r1,#0
00327c  2007              MOVS     r0,#7
00327e  f7fffffe          BL       LCD_WriteReg
;;;1991   		//vgh 
;;;1992   		LCD_WriteReg(0x0010,0x1690);   
003282  f2416190          MOV      r1,#0x1690
003286  2010              MOVS     r0,#0x10
003288  f7fffffe          BL       LCD_WriteReg
;;;1993   		LCD_WriteReg(0x0011,0x0227);
00328c  f2402127          MOV      r1,#0x227
003290  2011              MOVS     r0,#0x11
003292  f7fffffe          BL       LCD_WriteReg
;;;1994   		//delayms(100);
;;;1995   		//vregiout 
;;;1996   		LCD_WriteReg(0x0012,0x009D); //0x001b
003296  219d              MOVS     r1,#0x9d
003298  2012              MOVS     r0,#0x12
00329a  f7fffffe          BL       LCD_WriteReg
;;;1997   		//delayms(100); 
;;;1998   		//vom amplitude
;;;1999   		LCD_WriteReg(0x0013,0x1900);
00329e  f44f51c8          MOV      r1,#0x1900
0032a2  2013              MOVS     r0,#0x13
0032a4  f7fffffe          BL       LCD_WriteReg
;;;2000   		//delayms(100); 
;;;2001   		//vom H
;;;2002   		LCD_WriteReg(0x0029,0x0025); 
0032a8  2125              MOVS     r1,#0x25
0032aa  2029              MOVS     r0,#0x29
0032ac  f7fffffe          BL       LCD_WriteReg
;;;2003   		LCD_WriteReg(0x002B,0x000D); 
0032b0  210d              MOVS     r1,#0xd
0032b2  202b              MOVS     r0,#0x2b
0032b4  f7fffffe          BL       LCD_WriteReg
;;;2004   		//gamma
;;;2005   		LCD_WriteReg(0x0030,0x0007);
0032b8  2107              MOVS     r1,#7
0032ba  2030              MOVS     r0,#0x30
0032bc  f7fffffe          BL       LCD_WriteReg
;;;2006   		LCD_WriteReg(0x0031,0x0303);
0032c0  f2403103          MOV      r1,#0x303
0032c4  2031              MOVS     r0,#0x31
0032c6  f7fffffe          BL       LCD_WriteReg
;;;2007   		LCD_WriteReg(0x0032,0x0003);// 0006
0032ca  2103              MOVS     r1,#3
0032cc  2032              MOVS     r0,#0x32
0032ce  f7fffffe          BL       LCD_WriteReg
;;;2008   		LCD_WriteReg(0x0035,0x0206);
0032d2  f2402106          MOV      r1,#0x206
0032d6  2035              MOVS     r0,#0x35
0032d8  f7fffffe          BL       LCD_WriteReg
;;;2009   		LCD_WriteReg(0x0036,0x0008);
0032dc  2108              MOVS     r1,#8
0032de  2036              MOVS     r0,#0x36
0032e0  f7fffffe          BL       LCD_WriteReg
;;;2010   		LCD_WriteReg(0x0037,0x0406); 
0032e4  f2404106          MOV      r1,#0x406
0032e8  2037              MOVS     r0,#0x37
0032ea  f7fffffe          BL       LCD_WriteReg
;;;2011   		LCD_WriteReg(0x0038,0x0304);//0200
0032ee  f44f7141          MOV      r1,#0x304
0032f2  e000              B        |L1.13046|
                  |L1.13044|
0032f4  e058              B        |L1.13224|
                  |L1.13046|
0032f6  2038              MOVS     r0,#0x38
0032f8  f7fffffe          BL       LCD_WriteReg
;;;2012   		LCD_WriteReg(0x0039,0x0007); 
0032fc  2107              MOVS     r1,#7
0032fe  2039              MOVS     r0,#0x39
003300  f7fffffe          BL       LCD_WriteReg
;;;2013   		LCD_WriteReg(0x003C,0x0602);// 0504
003304  f2406102          MOV      r1,#0x602
003308  203c              MOVS     r0,#0x3c
00330a  f7fffffe          BL       LCD_WriteReg
;;;2014   		LCD_WriteReg(0x003D,0x0008); 
00330e  2108              MOVS     r1,#8
003310  203d              MOVS     r0,#0x3d
003312  f7fffffe          BL       LCD_WriteReg
;;;2015   		//ram
;;;2016   		LCD_WriteReg(0x0050,0x0000); 
003316  2100              MOVS     r1,#0
003318  2050              MOVS     r0,#0x50
00331a  f7fffffe          BL       LCD_WriteReg
;;;2017   		LCD_WriteReg(0x0051,0x00EF);
00331e  21ef              MOVS     r1,#0xef
003320  2051              MOVS     r0,#0x51
003322  f7fffffe          BL       LCD_WriteReg
;;;2018   		LCD_WriteReg(0x0052,0x0000); 
003326  2100              MOVS     r1,#0
003328  2052              MOVS     r0,#0x52
00332a  f7fffffe          BL       LCD_WriteReg
;;;2019   		LCD_WriteReg(0x0053,0x013F);  
00332e  f240113f          MOV      r1,#0x13f
003332  2053              MOVS     r0,#0x53
003334  f7fffffe          BL       LCD_WriteReg
;;;2020   		LCD_WriteReg(0x0060,0xA700); 
003338  f44f4127          MOV      r1,#0xa700
00333c  2060              MOVS     r0,#0x60
00333e  f7fffffe          BL       LCD_WriteReg
;;;2021   		LCD_WriteReg(0x0061,0x0001); 
003342  2101              MOVS     r1,#1
003344  2061              MOVS     r0,#0x61
003346  f7fffffe          BL       LCD_WriteReg
;;;2022   		LCD_WriteReg(0x006A,0x0000); 
00334a  2100              MOVS     r1,#0
00334c  206a              MOVS     r0,#0x6a
00334e  f7fffffe          BL       LCD_WriteReg
;;;2023   		//
;;;2024   		LCD_WriteReg(0x0080,0x0000); 
003352  2100              MOVS     r1,#0
003354  2080              MOVS     r0,#0x80
003356  f7fffffe          BL       LCD_WriteReg
;;;2025   		LCD_WriteReg(0x0081,0x0000); 
00335a  2100              MOVS     r1,#0
00335c  2081              MOVS     r0,#0x81
00335e  f7fffffe          BL       LCD_WriteReg
;;;2026   		LCD_WriteReg(0x0082,0x0000); 
003362  2100              MOVS     r1,#0
003364  2082              MOVS     r0,#0x82
003366  f7fffffe          BL       LCD_WriteReg
;;;2027   		LCD_WriteReg(0x0083,0x0000); 
00336a  2100              MOVS     r1,#0
00336c  2083              MOVS     r0,#0x83
00336e  f7fffffe          BL       LCD_WriteReg
;;;2028   		LCD_WriteReg(0x0084,0x0000); 
003372  2100              MOVS     r1,#0
003374  2084              MOVS     r0,#0x84
003376  f7fffffe          BL       LCD_WriteReg
;;;2029   		LCD_WriteReg(0x0085,0x0000); 
00337a  2100              MOVS     r1,#0
00337c  2085              MOVS     r0,#0x85
00337e  f7fffffe          BL       LCD_WriteReg
;;;2030   		//
;;;2031   		LCD_WriteReg(0x0090,0x0010); 
003382  2110              MOVS     r1,#0x10
003384  2090              MOVS     r0,#0x90
003386  f7fffffe          BL       LCD_WriteReg
;;;2032   		LCD_WriteReg(0x0092,0x0600); 
00338a  f44f61c0          MOV      r1,#0x600
00338e  2092              MOVS     r0,#0x92
003390  f7fffffe          BL       LCD_WriteReg
;;;2033   		
;;;2034   		LCD_WriteReg(0x0007,0x0133);
003394  f2401133          MOV      r1,#0x133
003398  2007              MOVS     r0,#7
00339a  f7fffffe          BL       LCD_WriteReg
;;;2035   		LCD_WriteReg(0x00,0x0022);//
00339e  2122              MOVS     r1,#0x22
0033a0  2000              MOVS     r0,#0
0033a2  f7fffffe          BL       LCD_WriteReg
                  |L1.13222|
0033a6  e71f              B        |L1.12776|
                  |L1.13224|
;;;2036   	}else if(lcddev.id==0x9328)//ILI9328   OK  
0033a8  488f              LDR      r0,|L1.13800|
0033aa  8880              LDRH     r0,[r0,#4]  ; lcddev
0033ac  f2493128          MOV      r1,#0x9328
0033b0  4288              CMP      r0,r1
0033b2  d17d              BNE      |L1.13488|
;;;2037   	{
;;;2038     		LCD_WriteReg(0x00EC,0x108F);// internal timeing      
0033b4  f241018f          MOV      r1,#0x108f
0033b8  20ec              MOVS     r0,#0xec
0033ba  f7fffffe          BL       LCD_WriteReg
;;;2039    		LCD_WriteReg(0x00EF,0x1234);// ADD        
0033be  f2412134          MOV      r1,#0x1234
0033c2  20ef              MOVS     r0,#0xef
0033c4  f7fffffe          BL       LCD_WriteReg
;;;2040   		//LCD_WriteReg(0x00e7,0x0010);      
;;;2041           //LCD_WriteReg(0x0000,0x0001);//开启内部时钟
;;;2042           LCD_WriteReg(0x0001,0x0100);     
0033c8  f44f7180          MOV      r1,#0x100
0033cc  2001              MOVS     r0,#1
0033ce  f7fffffe          BL       LCD_WriteReg
;;;2043           LCD_WriteReg(0x0002,0x0700);//电源开启                    
0033d2  f44f61e0          MOV      r1,#0x700
0033d6  2002              MOVS     r0,#2
0033d8  f7fffffe          BL       LCD_WriteReg
;;;2044   		//LCD_WriteReg(0x0003,(1<<3)|(1<<4) ); 	//65K  RGB
;;;2045   		//DRIVE TABLE(寄存器 03H)
;;;2046   		//BIT3=AM BIT4:5=ID0:1
;;;2047   		//AM ID0 ID1   FUNCATION
;;;2048   		// 0  0   0	   R->L D->U
;;;2049   		// 1  0   0	   D->U	R->L
;;;2050   		// 0  1   0	   L->R D->U
;;;2051   		// 1  1   0    D->U	L->R
;;;2052   		// 0  0   1	   R->L U->D
;;;2053   		// 1  0   1    U->D	R->L
;;;2054   		// 0  1   1    L->R U->D 正常就用这个.
;;;2055   		// 1  1   1	   U->D	L->R
;;;2056           LCD_WriteReg(0x0003,(1<<12)|(3<<4)|(0<<3) );//65K    
0033dc  f2410130          MOV      r1,#0x1030
0033e0  2003              MOVS     r0,#3
0033e2  f7fffffe          BL       LCD_WriteReg
;;;2057           LCD_WriteReg(0x0004,0x0000);                                   
0033e6  2100              MOVS     r1,#0
0033e8  2004              MOVS     r0,#4
0033ea  f7fffffe          BL       LCD_WriteReg
;;;2058           LCD_WriteReg(0x0008,0x0202);	           
0033ee  f2402102          MOV      r1,#0x202
0033f2  2008              MOVS     r0,#8
0033f4  f7fffffe          BL       LCD_WriteReg
;;;2059           LCD_WriteReg(0x0009,0x0000);         
0033f8  2100              MOVS     r1,#0
0033fa  2009              MOVS     r0,#9
0033fc  f7fffffe          BL       LCD_WriteReg
;;;2060           LCD_WriteReg(0x000a,0x0000);//display setting         
003400  2100              MOVS     r1,#0
003402  200a              MOVS     r0,#0xa
003404  f7fffffe          BL       LCD_WriteReg
;;;2061           LCD_WriteReg(0x000c,0x0001);//display setting          
003408  2101              MOVS     r1,#1
00340a  200c              MOVS     r0,#0xc
00340c  f7fffffe          BL       LCD_WriteReg
;;;2062           LCD_WriteReg(0x000d,0x0000);//0f3c          
003410  2100              MOVS     r1,#0
003412  200d              MOVS     r0,#0xd
003414  f7fffffe          BL       LCD_WriteReg
;;;2063           LCD_WriteReg(0x000f,0x0000);
003418  2100              MOVS     r1,#0
00341a  200f              MOVS     r0,#0xf
00341c  f7fffffe          BL       LCD_WriteReg
;;;2064   		//电源配置
;;;2065           LCD_WriteReg(0x0010,0x0000);   
003420  2100              MOVS     r1,#0
003422  2010              MOVS     r0,#0x10
003424  f7fffffe          BL       LCD_WriteReg
;;;2066           LCD_WriteReg(0x0011,0x0007);
003428  2107              MOVS     r1,#7
00342a  2011              MOVS     r0,#0x11
00342c  f7fffffe          BL       LCD_WriteReg
;;;2067           LCD_WriteReg(0x0012,0x0000);                                                                 
003430  2100              MOVS     r1,#0
003432  2012              MOVS     r0,#0x12
003434  f7fffffe          BL       LCD_WriteReg
;;;2068           LCD_WriteReg(0x0013,0x0000);                 
003438  2100              MOVS     r1,#0
00343a  2013              MOVS     r0,#0x13
00343c  f7fffffe          BL       LCD_WriteReg
;;;2069        	LCD_WriteReg(0x0007,0x0001);                 
003440  2101              MOVS     r1,#1
003442  2007              MOVS     r0,#7
003444  f7fffffe          BL       LCD_WriteReg
;;;2070          	delay_ms(50); 
003448  2032              MOVS     r0,#0x32
00344a  f7fffffe          BL       delay_ms
;;;2071           LCD_WriteReg(0x0010,0x1490);   
00344e  f2414190          MOV      r1,#0x1490
003452  2010              MOVS     r0,#0x10
003454  f7fffffe          BL       LCD_WriteReg
;;;2072           LCD_WriteReg(0x0011,0x0227);
003458  f2402127          MOV      r1,#0x227
00345c  2011              MOVS     r0,#0x11
00345e  f7fffffe          BL       LCD_WriteReg
;;;2073           delay_ms(50); 
003462  2032              MOVS     r0,#0x32
003464  f7fffffe          BL       delay_ms
;;;2074           LCD_WriteReg(0x0012,0x008A);                  
003468  218a              MOVS     r1,#0x8a
00346a  2012              MOVS     r0,#0x12
00346c  f7fffffe          BL       LCD_WriteReg
;;;2075           delay_ms(50); 
003470  2032              MOVS     r0,#0x32
003472  f7fffffe          BL       delay_ms
;;;2076           LCD_WriteReg(0x0013,0x1a00);   
003476  f44f51d0          MOV      r1,#0x1a00
00347a  2013              MOVS     r0,#0x13
00347c  f7fffffe          BL       LCD_WriteReg
;;;2077           LCD_WriteReg(0x0029,0x0006);
003480  2106              MOVS     r1,#6
003482  2029              MOVS     r0,#0x29
003484  f7fffffe          BL       LCD_WriteReg
;;;2078           LCD_WriteReg(0x002b,0x000d);
003488  210d              MOVS     r1,#0xd
00348a  202b              MOVS     r0,#0x2b
00348c  f7fffffe          BL       LCD_WriteReg
;;;2079           delay_ms(50); 
003490  2032              MOVS     r0,#0x32
003492  f7fffffe          BL       delay_ms
;;;2080           LCD_WriteReg(0x0020,0x0000);                                                            
003496  2100              MOVS     r1,#0
003498  2020              MOVS     r0,#0x20
00349a  f7fffffe          BL       LCD_WriteReg
;;;2081           LCD_WriteReg(0x0021,0x0000);           
00349e  2100              MOVS     r1,#0
0034a0  2021              MOVS     r0,#0x21
0034a2  f7fffffe          BL       LCD_WriteReg
;;;2082   		delay_ms(50); 
0034a6  2032              MOVS     r0,#0x32
0034a8  f7fffffe          BL       delay_ms
;;;2083   		//伽马校正
;;;2084           LCD_WriteReg(0x0030,0x0000); 
0034ac  2100              MOVS     r1,#0
0034ae  e000              B        |L1.13490|
                  |L1.13488|
0034b0  e075              B        |L1.13726|
                  |L1.13490|
0034b2  2030              MOVS     r0,#0x30
0034b4  f7fffffe          BL       LCD_WriteReg
;;;2085           LCD_WriteReg(0x0031,0x0604);   
0034b8  f2406104          MOV      r1,#0x604
0034bc  2031              MOVS     r0,#0x31
0034be  f7fffffe          BL       LCD_WriteReg
;;;2086           LCD_WriteReg(0x0032,0x0305);
0034c2  f2403105          MOV      r1,#0x305
0034c6  2032              MOVS     r0,#0x32
0034c8  f7fffffe          BL       LCD_WriteReg
;;;2087           LCD_WriteReg(0x0035,0x0000);
0034cc  2100              MOVS     r1,#0
0034ce  2035              MOVS     r0,#0x35
0034d0  f7fffffe          BL       LCD_WriteReg
;;;2088           LCD_WriteReg(0x0036,0x0C09); 
0034d4  f6404109          MOV      r1,#0xc09
0034d8  2036              MOVS     r0,#0x36
0034da  f7fffffe          BL       LCD_WriteReg
;;;2089           LCD_WriteReg(0x0037,0x0204);
0034de  f44f7101          MOV      r1,#0x204
0034e2  2037              MOVS     r0,#0x37
0034e4  f7fffffe          BL       LCD_WriteReg
;;;2090           LCD_WriteReg(0x0038,0x0301);        
0034e8  f2403101          MOV      r1,#0x301
0034ec  2038              MOVS     r0,#0x38
0034ee  f7fffffe          BL       LCD_WriteReg
;;;2091           LCD_WriteReg(0x0039,0x0707);     
0034f2  f2407107          MOV      r1,#0x707
0034f6  2039              MOVS     r0,#0x39
0034f8  f7fffffe          BL       LCD_WriteReg
;;;2092           LCD_WriteReg(0x003c,0x0000);
0034fc  2100              MOVS     r1,#0
0034fe  203c              MOVS     r0,#0x3c
003500  f7fffffe          BL       LCD_WriteReg
;;;2093           LCD_WriteReg(0x003d,0x0a0a);
003504  f640210a          MOV      r1,#0xa0a
003508  203d              MOVS     r0,#0x3d
00350a  f7fffffe          BL       LCD_WriteReg
;;;2094           delay_ms(50); 
00350e  2032              MOVS     r0,#0x32
003510  f7fffffe          BL       delay_ms
;;;2095           LCD_WriteReg(0x0050,0x0000); //水平GRAM起始位置 
003514  2100              MOVS     r1,#0
003516  2050              MOVS     r0,#0x50
003518  f7fffffe          BL       LCD_WriteReg
;;;2096           LCD_WriteReg(0x0051,0x00ef); //水平GRAM终止位置                    
00351c  21ef              MOVS     r1,#0xef
00351e  2051              MOVS     r0,#0x51
003520  f7fffffe          BL       LCD_WriteReg
;;;2097           LCD_WriteReg(0x0052,0x0000); //垂直GRAM起始位置                    
003524  2100              MOVS     r1,#0
003526  2052              MOVS     r0,#0x52
003528  f7fffffe          BL       LCD_WriteReg
;;;2098           LCD_WriteReg(0x0053,0x013f); //垂直GRAM终止位置  
00352c  f240113f          MOV      r1,#0x13f
003530  2053              MOVS     r0,#0x53
003532  f7fffffe          BL       LCD_WriteReg
;;;2099    
;;;2100            LCD_WriteReg(0x0060,0xa700);        
003536  f44f4127          MOV      r1,#0xa700
00353a  2060              MOVS     r0,#0x60
00353c  f7fffffe          BL       LCD_WriteReg
;;;2101           LCD_WriteReg(0x0061,0x0001); 
003540  2101              MOVS     r1,#1
003542  2061              MOVS     r0,#0x61
003544  f7fffffe          BL       LCD_WriteReg
;;;2102           LCD_WriteReg(0x006a,0x0000);
003548  2100              MOVS     r1,#0
00354a  206a              MOVS     r0,#0x6a
00354c  f7fffffe          BL       LCD_WriteReg
;;;2103           LCD_WriteReg(0x0080,0x0000);
003550  2100              MOVS     r1,#0
003552  2080              MOVS     r0,#0x80
003554  f7fffffe          BL       LCD_WriteReg
;;;2104           LCD_WriteReg(0x0081,0x0000);
003558  2100              MOVS     r1,#0
00355a  2081              MOVS     r0,#0x81
00355c  f7fffffe          BL       LCD_WriteReg
;;;2105           LCD_WriteReg(0x0082,0x0000);
003560  2100              MOVS     r1,#0
003562  2082              MOVS     r0,#0x82
003564  f7fffffe          BL       LCD_WriteReg
;;;2106           LCD_WriteReg(0x0083,0x0000);
003568  2100              MOVS     r1,#0
00356a  2083              MOVS     r0,#0x83
00356c  f7fffffe          BL       LCD_WriteReg
;;;2107           LCD_WriteReg(0x0084,0x0000);
003570  2100              MOVS     r1,#0
003572  2084              MOVS     r0,#0x84
003574  f7fffffe          BL       LCD_WriteReg
;;;2108           LCD_WriteReg(0x0085,0x0000);
003578  2100              MOVS     r1,#0
00357a  2085              MOVS     r0,#0x85
00357c  f7fffffe          BL       LCD_WriteReg
;;;2109         
;;;2110           LCD_WriteReg(0x0090,0x0010);     
003580  2110              MOVS     r1,#0x10
003582  2090              MOVS     r0,#0x90
003584  f7fffffe          BL       LCD_WriteReg
;;;2111           LCD_WriteReg(0x0092,0x0600);  
003588  f44f61c0          MOV      r1,#0x600
00358c  2092              MOVS     r0,#0x92
00358e  f7fffffe          BL       LCD_WriteReg
;;;2112           //开启显示设置    
;;;2113           LCD_WriteReg(0x0007,0x0133); 
003592  f2401133          MOV      r1,#0x133
003596  2007              MOVS     r0,#7
003598  f7fffffe          BL       LCD_WriteReg
                  |L1.13724|
00359c  e624              B        |L1.12776|
                  |L1.13726|
;;;2114   	}else if(lcddev.id==0x9320)//测试OK.
00359e  4812              LDR      r0,|L1.13800|
0035a0  8880              LDRH     r0,[r0,#4]  ; lcddev
0035a2  f2493120          MOV      r1,#0x9320
0035a6  4288              CMP      r0,r1
0035a8  d17e              BNE      |L1.13992|
;;;2115   	{
;;;2116   		LCD_WriteReg(0x00,0x0000);
0035aa  2100              MOVS     r1,#0
0035ac  4608              MOV      r0,r1
0035ae  f7fffffe          BL       LCD_WriteReg
;;;2117   		LCD_WriteReg(0x01,0x0100);	//Driver Output Contral.
0035b2  f44f7180          MOV      r1,#0x100
0035b6  2001              MOVS     r0,#1
0035b8  f7fffffe          BL       LCD_WriteReg
;;;2118   		LCD_WriteReg(0x02,0x0700);	//LCD Driver Waveform Contral.
0035bc  f44f61e0          MOV      r1,#0x700
0035c0  2002              MOVS     r0,#2
0035c2  f7fffffe          BL       LCD_WriteReg
;;;2119   		LCD_WriteReg(0x03,0x1030);//Entry Mode Set.
0035c6  f2410130          MOV      r1,#0x1030
0035ca  2003              MOVS     r0,#3
0035cc  f7fffffe          BL       LCD_WriteReg
;;;2120   		//LCD_WriteReg(0x03,0x1018);	//Entry Mode Set.
;;;2121   	
;;;2122   		LCD_WriteReg(0x04,0x0000);	//Scalling Contral.
0035d0  2100              MOVS     r1,#0
0035d2  2004              MOVS     r0,#4
0035d4  f7fffffe          BL       LCD_WriteReg
;;;2123   		LCD_WriteReg(0x08,0x0202);	//Display Contral 2.(0x0207)
0035d8  f2402102          MOV      r1,#0x202
0035dc  2008              MOVS     r0,#8
0035de  f7fffffe          BL       LCD_WriteReg
;;;2124   		LCD_WriteReg(0x09,0x0000);	//Display Contral 3.(0x0000)
0035e2  2100              MOVS     r1,#0
0035e4  2009              MOVS     r0,#9
0035e6  e001              B        |L1.13804|
                  |L1.13800|
                          DCD      lcddev
                  |L1.13804|
0035ec  f7fffffe          BL       LCD_WriteReg
;;;2125   		LCD_WriteReg(0x0a,0x0000);	//Frame Cycle Contal.(0x0000)
0035f0  2100              MOVS     r1,#0
0035f2  200a              MOVS     r0,#0xa
0035f4  f7fffffe          BL       LCD_WriteReg
;;;2126   		LCD_WriteReg(0x0c,(1<<0));	//Extern Display Interface Contral 1.(0x0000)
0035f8  2101              MOVS     r1,#1
0035fa  200c              MOVS     r0,#0xc
0035fc  f7fffffe          BL       LCD_WriteReg
;;;2127   		LCD_WriteReg(0x0d,0x0000);	//Frame Maker Position.
003600  2100              MOVS     r1,#0
003602  200d              MOVS     r0,#0xd
003604  f7fffffe          BL       LCD_WriteReg
;;;2128   		LCD_WriteReg(0x0f,0x0000);	//Extern Display Interface Contral 2.	    
003608  2100              MOVS     r1,#0
00360a  200f              MOVS     r0,#0xf
00360c  f7fffffe          BL       LCD_WriteReg
;;;2129   		delay_ms(50); 
003610  2032              MOVS     r0,#0x32
003612  f7fffffe          BL       delay_ms
;;;2130   		LCD_WriteReg(0x07,0x0101);	//Display Contral.
003616  f2401101          MOV      r1,#0x101
00361a  2007              MOVS     r0,#7
00361c  f7fffffe          BL       LCD_WriteReg
;;;2131   		delay_ms(50); 								  
003620  2032              MOVS     r0,#0x32
003622  f7fffffe          BL       delay_ms
;;;2132   		LCD_WriteReg(0x10,(1<<12)|(0<<8)|(1<<7)|(1<<6)|(0<<4));	//Power Control 1.(0x16b0)
003626  f44f5186          MOV      r1,#0x10c0
00362a  2010              MOVS     r0,#0x10
00362c  f7fffffe          BL       LCD_WriteReg
;;;2133   		LCD_WriteReg(0x11,0x0007);								//Power Control 2.(0x0001)
003630  2107              MOVS     r1,#7
003632  2011              MOVS     r0,#0x11
003634  f7fffffe          BL       LCD_WriteReg
;;;2134   		LCD_WriteReg(0x12,(1<<8)|(1<<4)|(0<<0));				//Power Control 3.(0x0138)
003638  f44f7188          MOV      r1,#0x110
00363c  2012              MOVS     r0,#0x12
00363e  f7fffffe          BL       LCD_WriteReg
;;;2135   		LCD_WriteReg(0x13,0x0b00);								//Power Control 4.
003642  f44f6130          MOV      r1,#0xb00
003646  2013              MOVS     r0,#0x13
003648  f7fffffe          BL       LCD_WriteReg
;;;2136   		LCD_WriteReg(0x29,0x0000);								//Power Control 7.
00364c  2100              MOVS     r1,#0
00364e  2029              MOVS     r0,#0x29
003650  f7fffffe          BL       LCD_WriteReg
;;;2137   	
;;;2138   		LCD_WriteReg(0x2b,(1<<14)|(1<<4));	    
003654  f2440110          MOV      r1,#0x4010
003658  202b              MOVS     r0,#0x2b
00365a  f7fffffe          BL       LCD_WriteReg
;;;2139   		LCD_WriteReg(0x50,0);	//Set X Star
00365e  2100              MOVS     r1,#0
003660  2050              MOVS     r0,#0x50
003662  f7fffffe          BL       LCD_WriteReg
;;;2140   		//水平GRAM终止位置Set X End.
;;;2141   		LCD_WriteReg(0x51,239);	//Set Y Star
003666  21ef              MOVS     r1,#0xef
003668  2051              MOVS     r0,#0x51
00366a  f7fffffe          BL       LCD_WriteReg
;;;2142   		LCD_WriteReg(0x52,0);	//Set Y End.t.
00366e  2100              MOVS     r1,#0
003670  2052              MOVS     r0,#0x52
003672  f7fffffe          BL       LCD_WriteReg
;;;2143   		LCD_WriteReg(0x53,319);	//
003676  f240113f          MOV      r1,#0x13f
00367a  2053              MOVS     r0,#0x53
00367c  f7fffffe          BL       LCD_WriteReg
;;;2144   	
;;;2145   		LCD_WriteReg(0x60,0x2700);	//Driver Output Control.
003680  f44f511c          MOV      r1,#0x2700
003684  2060              MOVS     r0,#0x60
003686  f7fffffe          BL       LCD_WriteReg
;;;2146   		LCD_WriteReg(0x61,0x0001);	//Driver Output Control.
00368a  2101              MOVS     r1,#1
00368c  2061              MOVS     r0,#0x61
00368e  f7fffffe          BL       LCD_WriteReg
;;;2147   		LCD_WriteReg(0x6a,0x0000);	//Vertical Srcoll Control.
003692  2100              MOVS     r1,#0
003694  206a              MOVS     r0,#0x6a
003696  f7fffffe          BL       LCD_WriteReg
;;;2148   	
;;;2149   		LCD_WriteReg(0x80,0x0000);	//Display Position? Partial Display 1.
00369a  2100              MOVS     r1,#0
00369c  2080              MOVS     r0,#0x80
00369e  f7fffffe          BL       LCD_WriteReg
;;;2150   		LCD_WriteReg(0x81,0x0000);	//RAM Address Start? Partial Display 1.
0036a2  2100              MOVS     r1,#0
0036a4  2081              MOVS     r0,#0x81
0036a6  e000              B        |L1.13994|
                  |L1.13992|
0036a8  e030              B        |L1.14092|
                  |L1.13994|
0036aa  f7fffffe          BL       LCD_WriteReg
;;;2151   		LCD_WriteReg(0x82,0x0000);	//RAM Address End-Partial Display 1.
0036ae  2100              MOVS     r1,#0
0036b0  2082              MOVS     r0,#0x82
0036b2  f7fffffe          BL       LCD_WriteReg
;;;2152   		LCD_WriteReg(0x83,0x0000);	//Displsy Position? Partial Display 2.
0036b6  2100              MOVS     r1,#0
0036b8  2083              MOVS     r0,#0x83
0036ba  f7fffffe          BL       LCD_WriteReg
;;;2153   		LCD_WriteReg(0x84,0x0000);	//RAM Address Start? Partial Display 2.
0036be  2100              MOVS     r1,#0
0036c0  2084              MOVS     r0,#0x84
0036c2  f7fffffe          BL       LCD_WriteReg
;;;2154   		LCD_WriteReg(0x85,0x0000);	//RAM Address End? Partial Display 2.
0036c6  2100              MOVS     r1,#0
0036c8  2085              MOVS     r0,#0x85
0036ca  f7fffffe          BL       LCD_WriteReg
;;;2155   	
;;;2156   		LCD_WriteReg(0x90,(0<<7)|(16<<0));	//Frame Cycle Contral.(0x0013)
0036ce  2110              MOVS     r1,#0x10
0036d0  2090              MOVS     r0,#0x90
0036d2  f7fffffe          BL       LCD_WriteReg
;;;2157   		LCD_WriteReg(0x92,0x0000);	//Panel Interface Contral 2.(0x0000)
0036d6  2100              MOVS     r1,#0
0036d8  2092              MOVS     r0,#0x92
0036da  f7fffffe          BL       LCD_WriteReg
;;;2158   		LCD_WriteReg(0x93,0x0001);	//Panel Interface Contral 3.
0036de  2101              MOVS     r1,#1
0036e0  2093              MOVS     r0,#0x93
0036e2  f7fffffe          BL       LCD_WriteReg
;;;2159   		LCD_WriteReg(0x95,0x0110);	//Frame Cycle Contral.(0x0110)
0036e6  f44f7188          MOV      r1,#0x110
0036ea  2095              MOVS     r0,#0x95
0036ec  f7fffffe          BL       LCD_WriteReg
;;;2160   		LCD_WriteReg(0x97,(0<<8));	//
0036f0  2100              MOVS     r1,#0
0036f2  2097              MOVS     r0,#0x97
0036f4  f7fffffe          BL       LCD_WriteReg
;;;2161   		LCD_WriteReg(0x98,0x0000);	//Frame Cycle Contral.	   
0036f8  2100              MOVS     r1,#0
0036fa  2098              MOVS     r0,#0x98
0036fc  f7fffffe          BL       LCD_WriteReg
;;;2162   		LCD_WriteReg(0x07,0x0173);	//(0x0173)
003700  f2401173          MOV      r1,#0x173
003704  2007              MOVS     r0,#7
003706  f7fffffe          BL       LCD_WriteReg
00370a  e56d              B        |L1.12776|
                  |L1.14092|
;;;2163   	}else if(lcddev.id==0X9331)//OK |/|/|			 
00370c  48fe              LDR      r0,|L1.15112|
00370e  8880              LDRH     r0,[r0,#4]  ; lcddev
003710  f2493131          MOV      r1,#0x9331
003714  4288              CMP      r0,r1
003716  d17d              BNE      |L1.14356|
;;;2164   	{
;;;2165   		LCD_WriteReg(0x00E7, 0x1014);
003718  f2410114          MOV      r1,#0x1014
00371c  20e7              MOVS     r0,#0xe7
00371e  f7fffffe          BL       LCD_WriteReg
;;;2166   		LCD_WriteReg(0x0001, 0x0100); // set SS and SM bit
003722  f44f7180          MOV      r1,#0x100
003726  2001              MOVS     r0,#1
003728  f7fffffe          BL       LCD_WriteReg
;;;2167   		LCD_WriteReg(0x0002, 0x0200); // set 1 line inversion
00372c  f44f7100          MOV      r1,#0x200
003730  2002              MOVS     r0,#2
003732  f7fffffe          BL       LCD_WriteReg
;;;2168           LCD_WriteReg(0x0003,(1<<12)|(3<<4)|(1<<3));//65K    
003736  f2410138          MOV      r1,#0x1038
00373a  2003              MOVS     r0,#3
00373c  f7fffffe          BL       LCD_WriteReg
;;;2169   		//LCD_WriteReg(0x0003, 0x1030); // set GRAM write direction and BGR=1.
;;;2170   		LCD_WriteReg(0x0008, 0x0202); // set the back porch and front porch
003740  f2402102          MOV      r1,#0x202
003744  2008              MOVS     r0,#8
003746  f7fffffe          BL       LCD_WriteReg
;;;2171   		LCD_WriteReg(0x0009, 0x0000); // set non-display area refresh cycle ISC[3:0]
00374a  2100              MOVS     r1,#0
00374c  2009              MOVS     r0,#9
00374e  f7fffffe          BL       LCD_WriteReg
;;;2172   		LCD_WriteReg(0x000A, 0x0000); // FMARK function
003752  2100              MOVS     r1,#0
003754  200a              MOVS     r0,#0xa
003756  f7fffffe          BL       LCD_WriteReg
;;;2173   		LCD_WriteReg(0x000C, 0x0000); // RGB interface setting
00375a  2100              MOVS     r1,#0
00375c  200c              MOVS     r0,#0xc
00375e  f7fffffe          BL       LCD_WriteReg
;;;2174   		LCD_WriteReg(0x000D, 0x0000); // Frame marker Position
003762  2100              MOVS     r1,#0
003764  200d              MOVS     r0,#0xd
003766  f7fffffe          BL       LCD_WriteReg
;;;2175   		LCD_WriteReg(0x000F, 0x0000); // RGB interface polarity
00376a  2100              MOVS     r1,#0
00376c  200f              MOVS     r0,#0xf
00376e  f7fffffe          BL       LCD_WriteReg
;;;2176   		//*************Power On sequence ****************//
;;;2177   		LCD_WriteReg(0x0010, 0x0000); // SAP, BT[3:0], AP, DSTB, SLP, STB
003772  2100              MOVS     r1,#0
003774  2010              MOVS     r0,#0x10
003776  f7fffffe          BL       LCD_WriteReg
;;;2178   		LCD_WriteReg(0x0011, 0x0007); // DC1[2:0], DC0[2:0], VC[2:0]
00377a  2107              MOVS     r1,#7
00377c  2011              MOVS     r0,#0x11
00377e  f7fffffe          BL       LCD_WriteReg
;;;2179   		LCD_WriteReg(0x0012, 0x0000); // VREG1OUT voltage
003782  2100              MOVS     r1,#0
003784  2012              MOVS     r0,#0x12
003786  f7fffffe          BL       LCD_WriteReg
;;;2180   		LCD_WriteReg(0x0013, 0x0000); // VDV[4:0] for VCOM amplitude
00378a  2100              MOVS     r1,#0
00378c  2013              MOVS     r0,#0x13
00378e  f7fffffe          BL       LCD_WriteReg
;;;2181   		delay_ms(200); // Dis-charge capacitor power voltage
003792  20c8              MOVS     r0,#0xc8
003794  f7fffffe          BL       delay_ms
;;;2182   		LCD_WriteReg(0x0010, 0x1690); // SAP, BT[3:0], AP, DSTB, SLP, STB
003798  f2416190          MOV      r1,#0x1690
00379c  2010              MOVS     r0,#0x10
00379e  f7fffffe          BL       LCD_WriteReg
;;;2183   		LCD_WriteReg(0x0011, 0x0227); // DC1[2:0], DC0[2:0], VC[2:0]
0037a2  f2402127          MOV      r1,#0x227
0037a6  2011              MOVS     r0,#0x11
0037a8  f7fffffe          BL       LCD_WriteReg
;;;2184   		delay_ms(50); // Delay 50ms
0037ac  2032              MOVS     r0,#0x32
0037ae  f7fffffe          BL       delay_ms
;;;2185   		LCD_WriteReg(0x0012, 0x000C); // Internal reference voltage= Vci;
0037b2  210c              MOVS     r1,#0xc
0037b4  2012              MOVS     r0,#0x12
0037b6  f7fffffe          BL       LCD_WriteReg
;;;2186   		delay_ms(50); // Delay 50ms
0037ba  2032              MOVS     r0,#0x32
0037bc  f7fffffe          BL       delay_ms
;;;2187   		LCD_WriteReg(0x0013, 0x0800); // Set VDV[4:0] for VCOM amplitude
0037c0  f44f6100          MOV      r1,#0x800
0037c4  2013              MOVS     r0,#0x13
0037c6  f7fffffe          BL       LCD_WriteReg
;;;2188   		LCD_WriteReg(0x0029, 0x0011); // Set VCM[5:0] for VCOMH
0037ca  2111              MOVS     r1,#0x11
0037cc  2029              MOVS     r0,#0x29
0037ce  f7fffffe          BL       LCD_WriteReg
;;;2189   		LCD_WriteReg(0x002B, 0x000B); // Set Frame Rate
0037d2  210b              MOVS     r1,#0xb
0037d4  202b              MOVS     r0,#0x2b
0037d6  f7fffffe          BL       LCD_WriteReg
;;;2190   		delay_ms(50); // Delay 50ms
0037da  2032              MOVS     r0,#0x32
0037dc  f7fffffe          BL       delay_ms
;;;2191   		LCD_WriteReg(0x0020, 0x0000); // GRAM horizontal Address
0037e0  2100              MOVS     r1,#0
0037e2  2020              MOVS     r0,#0x20
0037e4  f7fffffe          BL       LCD_WriteReg
;;;2192   		LCD_WriteReg(0x0021, 0x013f); // GRAM Vertical Address
0037e8  f240113f          MOV      r1,#0x13f
0037ec  2021              MOVS     r0,#0x21
0037ee  f7fffffe          BL       LCD_WriteReg
;;;2193   		// ----------- Adjust the Gamma Curve ----------//
;;;2194   		LCD_WriteReg(0x0030, 0x0000);
0037f2  2100              MOVS     r1,#0
0037f4  2030              MOVS     r0,#0x30
0037f6  f7fffffe          BL       LCD_WriteReg
;;;2195   		LCD_WriteReg(0x0031, 0x0106);
0037fa  f44f7183          MOV      r1,#0x106
0037fe  2031              MOVS     r0,#0x31
003800  f7fffffe          BL       LCD_WriteReg
;;;2196   		LCD_WriteReg(0x0032, 0x0000);
003804  2100              MOVS     r1,#0
003806  2032              MOVS     r0,#0x32
003808  f7fffffe          BL       LCD_WriteReg
;;;2197   		LCD_WriteReg(0x0035, 0x0204);
00380c  f44f7101          MOV      r1,#0x204
003810  2035              MOVS     r0,#0x35
003812  e000              B        |L1.14358|
                  |L1.14356|
003814  e064              B        |L1.14560|
                  |L1.14358|
003816  f7fffffe          BL       LCD_WriteReg
;;;2198   		LCD_WriteReg(0x0036, 0x160A);
00381a  f241610a          MOV      r1,#0x160a
00381e  2036              MOVS     r0,#0x36
003820  f7fffffe          BL       LCD_WriteReg
;;;2199   		LCD_WriteReg(0x0037, 0x0707);
003824  f2407107          MOV      r1,#0x707
003828  2037              MOVS     r0,#0x37
00382a  f7fffffe          BL       LCD_WriteReg
;;;2200   		LCD_WriteReg(0x0038, 0x0106);
00382e  f44f7183          MOV      r1,#0x106
003832  2038              MOVS     r0,#0x38
003834  f7fffffe          BL       LCD_WriteReg
;;;2201   		LCD_WriteReg(0x0039, 0x0707);
003838  f2407107          MOV      r1,#0x707
00383c  2039              MOVS     r0,#0x39
00383e  f7fffffe          BL       LCD_WriteReg
;;;2202   		LCD_WriteReg(0x003C, 0x0402);
003842  f2404102          MOV      r1,#0x402
003846  203c              MOVS     r0,#0x3c
003848  f7fffffe          BL       LCD_WriteReg
;;;2203   		LCD_WriteReg(0x003D, 0x0C0F);
00384c  f640410f          MOV      r1,#0xc0f
003850  203d              MOVS     r0,#0x3d
003852  f7fffffe          BL       LCD_WriteReg
;;;2204   		//------------------ Set GRAM area ---------------//
;;;2205   		LCD_WriteReg(0x0050, 0x0000); // Horizontal GRAM Start Address
003856  2100              MOVS     r1,#0
003858  2050              MOVS     r0,#0x50
00385a  f7fffffe          BL       LCD_WriteReg
;;;2206   		LCD_WriteReg(0x0051, 0x00EF); // Horizontal GRAM End Address
00385e  21ef              MOVS     r1,#0xef
003860  2051              MOVS     r0,#0x51
003862  f7fffffe          BL       LCD_WriteReg
;;;2207   		LCD_WriteReg(0x0052, 0x0000); // Vertical GRAM Start Address
003866  2100              MOVS     r1,#0
003868  2052              MOVS     r0,#0x52
00386a  f7fffffe          BL       LCD_WriteReg
;;;2208   		LCD_WriteReg(0x0053, 0x013F); // Vertical GRAM Start Address
00386e  f240113f          MOV      r1,#0x13f
003872  2053              MOVS     r0,#0x53
003874  f7fffffe          BL       LCD_WriteReg
;;;2209   		LCD_WriteReg(0x0060, 0x2700); // Gate Scan Line
003878  f44f511c          MOV      r1,#0x2700
00387c  2060              MOVS     r0,#0x60
00387e  f7fffffe          BL       LCD_WriteReg
;;;2210   		LCD_WriteReg(0x0061, 0x0001); // NDL,VLE, REV 
003882  2101              MOVS     r1,#1
003884  2061              MOVS     r0,#0x61
003886  f7fffffe          BL       LCD_WriteReg
;;;2211   		LCD_WriteReg(0x006A, 0x0000); // set scrolling line
00388a  2100              MOVS     r1,#0
00388c  206a              MOVS     r0,#0x6a
00388e  f7fffffe          BL       LCD_WriteReg
;;;2212   		//-------------- Partial Display Control ---------//
;;;2213   		LCD_WriteReg(0x0080, 0x0000);
003892  2100              MOVS     r1,#0
003894  2080              MOVS     r0,#0x80
003896  f7fffffe          BL       LCD_WriteReg
;;;2214   		LCD_WriteReg(0x0081, 0x0000);
00389a  2100              MOVS     r1,#0
00389c  2081              MOVS     r0,#0x81
00389e  f7fffffe          BL       LCD_WriteReg
;;;2215   		LCD_WriteReg(0x0082, 0x0000);
0038a2  2100              MOVS     r1,#0
0038a4  2082              MOVS     r0,#0x82
0038a6  f7fffffe          BL       LCD_WriteReg
;;;2216   		LCD_WriteReg(0x0083, 0x0000);
0038aa  2100              MOVS     r1,#0
0038ac  2083              MOVS     r0,#0x83
0038ae  f7fffffe          BL       LCD_WriteReg
;;;2217   		LCD_WriteReg(0x0084, 0x0000);
0038b2  2100              MOVS     r1,#0
0038b4  2084              MOVS     r0,#0x84
0038b6  f7fffffe          BL       LCD_WriteReg
;;;2218   		LCD_WriteReg(0x0085, 0x0000);
0038ba  2100              MOVS     r1,#0
0038bc  2085              MOVS     r0,#0x85
0038be  f7fffffe          BL       LCD_WriteReg
;;;2219   		//-------------- Panel Control -------------------//
;;;2220   		LCD_WriteReg(0x0090, 0x0010);
0038c2  2110              MOVS     r1,#0x10
0038c4  2090              MOVS     r0,#0x90
0038c6  f7fffffe          BL       LCD_WriteReg
;;;2221   		LCD_WriteReg(0x0092, 0x0600);
0038ca  f44f61c0          MOV      r1,#0x600
0038ce  2092              MOVS     r0,#0x92
0038d0  f7fffffe          BL       LCD_WriteReg
;;;2222   		LCD_WriteReg(0x0007, 0x0133); // 262K color and display ON
0038d4  f2401133          MOV      r1,#0x133
0038d8  2007              MOVS     r0,#7
0038da  f7fffffe          BL       LCD_WriteReg
0038de  e483              B        |L1.12776|
                  |L1.14560|
;;;2223   	}else if(lcddev.id==0x5408)
0038e0  4889              LDR      r0,|L1.15112|
0038e2  8880              LDRH     r0,[r0,#4]  ; lcddev
0038e4  f2454108          MOV      r1,#0x5408
0038e8  4288              CMP      r0,r1
0038ea  d17d              BNE      |L1.14824|
;;;2224   	{
;;;2225   		LCD_WriteReg(0x01,0x0100);								  
0038ec  f44f7180          MOV      r1,#0x100
0038f0  2001              MOVS     r0,#1
0038f2  f7fffffe          BL       LCD_WriteReg
;;;2226   		LCD_WriteReg(0x02,0x0700);//LCD Driving Waveform Contral 
0038f6  f44f61e0          MOV      r1,#0x700
0038fa  2002              MOVS     r0,#2
0038fc  f7fffffe          BL       LCD_WriteReg
;;;2227   		LCD_WriteReg(0x03,0x1030);//Entry Mode设置 	   
003900  f2410130          MOV      r1,#0x1030
003904  2003              MOVS     r0,#3
003906  f7fffffe          BL       LCD_WriteReg
;;;2228   		//指针从左至右自上而下的自动增模式
;;;2229   		//Normal Mode(Window Mode disable)
;;;2230   		//RGB格式
;;;2231   		//16位数据2次传输的8总线设置
;;;2232   		LCD_WriteReg(0x04,0x0000); //Scalling Control register     
00390a  2100              MOVS     r1,#0
00390c  2004              MOVS     r0,#4
00390e  f7fffffe          BL       LCD_WriteReg
;;;2233   		LCD_WriteReg(0x08,0x0207); //Display Control 2 
003912  f2402107          MOV      r1,#0x207
003916  2008              MOVS     r0,#8
003918  f7fffffe          BL       LCD_WriteReg
;;;2234   		LCD_WriteReg(0x09,0x0000); //Display Control 3	 
00391c  2100              MOVS     r1,#0
00391e  2009              MOVS     r0,#9
003920  f7fffffe          BL       LCD_WriteReg
;;;2235   		LCD_WriteReg(0x0A,0x0000); //Frame Cycle Control	 
003924  2100              MOVS     r1,#0
003926  200a              MOVS     r0,#0xa
003928  f7fffffe          BL       LCD_WriteReg
;;;2236   		LCD_WriteReg(0x0C,0x0000); //External Display Interface Control 1 
00392c  2100              MOVS     r1,#0
00392e  200c              MOVS     r0,#0xc
003930  f7fffffe          BL       LCD_WriteReg
;;;2237   		LCD_WriteReg(0x0D,0x0000); //Frame Maker Position		 
003934  2100              MOVS     r1,#0
003936  200d              MOVS     r0,#0xd
003938  f7fffffe          BL       LCD_WriteReg
;;;2238   		LCD_WriteReg(0x0F,0x0000); //External Display Interface Control 2 
00393c  2100              MOVS     r1,#0
00393e  200f              MOVS     r0,#0xf
003940  f7fffffe          BL       LCD_WriteReg
;;;2239    		delay_ms(20);
003944  2014              MOVS     r0,#0x14
003946  f7fffffe          BL       delay_ms
;;;2240   		//TFT 液晶彩色图像显示方法14
;;;2241   		LCD_WriteReg(0x10,0x16B0); //0x14B0 //Power Control 1
00394a  f24161b0          MOV      r1,#0x16b0
00394e  2010              MOVS     r0,#0x10
003950  f7fffffe          BL       LCD_WriteReg
;;;2242   		LCD_WriteReg(0x11,0x0001); //0x0007 //Power Control 2
003954  2101              MOVS     r1,#1
003956  2011              MOVS     r0,#0x11
003958  f7fffffe          BL       LCD_WriteReg
;;;2243   		LCD_WriteReg(0x17,0x0001); //0x0000 //Power Control 3
00395c  2101              MOVS     r1,#1
00395e  2017              MOVS     r0,#0x17
003960  f7fffffe          BL       LCD_WriteReg
;;;2244   		LCD_WriteReg(0x12,0x0138); //0x013B //Power Control 4
003964  f44f719c          MOV      r1,#0x138
003968  2012              MOVS     r0,#0x12
00396a  f7fffffe          BL       LCD_WriteReg
;;;2245   		LCD_WriteReg(0x13,0x0800); //0x0800 //Power Control 5
00396e  f44f6100          MOV      r1,#0x800
003972  2013              MOVS     r0,#0x13
003974  f7fffffe          BL       LCD_WriteReg
;;;2246   		LCD_WriteReg(0x29,0x0009); //NVM read data 2
003978  2109              MOVS     r1,#9
00397a  2029              MOVS     r0,#0x29
00397c  f7fffffe          BL       LCD_WriteReg
;;;2247   		LCD_WriteReg(0x2a,0x0009); //NVM read data 3
003980  2109              MOVS     r1,#9
003982  202a              MOVS     r0,#0x2a
003984  f7fffffe          BL       LCD_WriteReg
;;;2248   		LCD_WriteReg(0xa4,0x0000);	 
003988  2100              MOVS     r1,#0
00398a  20a4              MOVS     r0,#0xa4
00398c  f7fffffe          BL       LCD_WriteReg
;;;2249   		LCD_WriteReg(0x50,0x0000); //设置操作窗口的X轴开始列
003990  2100              MOVS     r1,#0
003992  2050              MOVS     r0,#0x50
003994  f7fffffe          BL       LCD_WriteReg
;;;2250   		LCD_WriteReg(0x51,0x00EF); //设置操作窗口的X轴结束列
003998  21ef              MOVS     r1,#0xef
00399a  2051              MOVS     r0,#0x51
00399c  f7fffffe          BL       LCD_WriteReg
;;;2251   		LCD_WriteReg(0x52,0x0000); //设置操作窗口的Y轴开始行
0039a0  2100              MOVS     r1,#0
0039a2  2052              MOVS     r0,#0x52
0039a4  f7fffffe          BL       LCD_WriteReg
;;;2252   		LCD_WriteReg(0x53,0x013F); //设置操作窗口的Y轴结束行
0039a8  f240113f          MOV      r1,#0x13f
0039ac  2053              MOVS     r0,#0x53
0039ae  f7fffffe          BL       LCD_WriteReg
;;;2253   		LCD_WriteReg(0x60,0x2700); //Driver Output Control
0039b2  f44f511c          MOV      r1,#0x2700
0039b6  2060              MOVS     r0,#0x60
0039b8  f7fffffe          BL       LCD_WriteReg
;;;2254   		//设置屏幕的点数以及扫描的起始行
;;;2255   		LCD_WriteReg(0x61,0x0001); //Driver Output Control
0039bc  2101              MOVS     r1,#1
0039be  2061              MOVS     r0,#0x61
0039c0  f7fffffe          BL       LCD_WriteReg
;;;2256   		LCD_WriteReg(0x6A,0x0000); //Vertical Scroll Control
0039c4  2100              MOVS     r1,#0
0039c6  206a              MOVS     r0,#0x6a
0039c8  f7fffffe          BL       LCD_WriteReg
;;;2257   		LCD_WriteReg(0x80,0x0000); //Display Position C Partial Display 1
0039cc  2100              MOVS     r1,#0
0039ce  2080              MOVS     r0,#0x80
0039d0  f7fffffe          BL       LCD_WriteReg
;;;2258   		LCD_WriteReg(0x81,0x0000); //RAM Address Start C Partial Display 1
0039d4  2100              MOVS     r1,#0
0039d6  2081              MOVS     r0,#0x81
0039d8  f7fffffe          BL       LCD_WriteReg
;;;2259   		LCD_WriteReg(0x82,0x0000); //RAM address End - Partial Display 1
0039dc  2100              MOVS     r1,#0
0039de  2082              MOVS     r0,#0x82
0039e0  f7fffffe          BL       LCD_WriteReg
;;;2260   		LCD_WriteReg(0x83,0x0000); //Display Position C Partial Display 2
0039e4  2100              MOVS     r1,#0
0039e6  e000              B        |L1.14826|
                  |L1.14824|
0039e8  e024              B        |L1.14900|
                  |L1.14826|
0039ea  2083              MOVS     r0,#0x83
0039ec  f7fffffe          BL       LCD_WriteReg
;;;2261   		LCD_WriteReg(0x84,0x0000); //RAM Address Start C Partial Display 2
0039f0  2100              MOVS     r1,#0
0039f2  2084              MOVS     r0,#0x84
0039f4  f7fffffe          BL       LCD_WriteReg
;;;2262   		LCD_WriteReg(0x85,0x0000); //RAM address End C Partail Display2
0039f8  2100              MOVS     r1,#0
0039fa  2085              MOVS     r0,#0x85
0039fc  f7fffffe          BL       LCD_WriteReg
;;;2263   		LCD_WriteReg(0x90,0x0013); //Frame Cycle Control
003a00  2113              MOVS     r1,#0x13
003a02  2090              MOVS     r0,#0x90
003a04  f7fffffe          BL       LCD_WriteReg
;;;2264   		LCD_WriteReg(0x92,0x0000);  //Panel Interface Control 2
003a08  2100              MOVS     r1,#0
003a0a  2092              MOVS     r0,#0x92
003a0c  f7fffffe          BL       LCD_WriteReg
;;;2265   		LCD_WriteReg(0x93,0x0003); //Panel Interface control 3
003a10  2103              MOVS     r1,#3
003a12  2093              MOVS     r0,#0x93
003a14  f7fffffe          BL       LCD_WriteReg
;;;2266   		LCD_WriteReg(0x95,0x0110);  //Frame Cycle Control
003a18  f44f7188          MOV      r1,#0x110
003a1c  2095              MOVS     r0,#0x95
003a1e  f7fffffe          BL       LCD_WriteReg
;;;2267   		LCD_WriteReg(0x07,0x0173);		 
003a22  f2401173          MOV      r1,#0x173
003a26  2007              MOVS     r0,#7
003a28  f7fffffe          BL       LCD_WriteReg
;;;2268   		delay_ms(50);
003a2c  2032              MOVS     r0,#0x32
003a2e  f7fffffe          BL       delay_ms
003a32  e4b8              B        |L1.13222|
                  |L1.14900|
;;;2269   	}	
;;;2270   	else if(lcddev.id==0x1505)//OK
003a34  4834              LDR      r0,|L1.15112|
003a36  8880              LDRH     r0,[r0,#4]  ; lcddev
003a38  f2415105          MOV      r1,#0x1505
003a3c  4288              CMP      r0,r1
003a3e  d17d              BNE      |L1.15164|
;;;2271   	{
;;;2272   		// second release on 3/5  ,luminance is acceptable,water wave appear during camera preview
;;;2273           LCD_WriteReg(0x0007,0x0000);
003a40  2100              MOVS     r1,#0
003a42  2007              MOVS     r0,#7
003a44  f7fffffe          BL       LCD_WriteReg
;;;2274           delay_ms(50); 
003a48  2032              MOVS     r0,#0x32
003a4a  f7fffffe          BL       delay_ms
;;;2275           LCD_WriteReg(0x0012,0x011C);//0x011A   why need to set several times?
003a4e  f44f718e          MOV      r1,#0x11c
003a52  2012              MOVS     r0,#0x12
003a54  f7fffffe          BL       LCD_WriteReg
;;;2276           LCD_WriteReg(0x00A4,0x0001);//NVM	 
003a58  2101              MOVS     r1,#1
003a5a  20a4              MOVS     r0,#0xa4
003a5c  f7fffffe          BL       LCD_WriteReg
;;;2277           LCD_WriteReg(0x0008,0x000F);
003a60  210f              MOVS     r1,#0xf
003a62  2008              MOVS     r0,#8
003a64  f7fffffe          BL       LCD_WriteReg
;;;2278           LCD_WriteReg(0x000A,0x0008);
003a68  2108              MOVS     r1,#8
003a6a  200a              MOVS     r0,#0xa
003a6c  f7fffffe          BL       LCD_WriteReg
;;;2279           LCD_WriteReg(0x000D,0x0008);	    
003a70  2108              MOVS     r1,#8
003a72  200d              MOVS     r0,#0xd
003a74  f7fffffe          BL       LCD_WriteReg
;;;2280     		//伽马校正
;;;2281           LCD_WriteReg(0x0030,0x0707);
003a78  f2407107          MOV      r1,#0x707
003a7c  2030              MOVS     r0,#0x30
003a7e  f7fffffe          BL       LCD_WriteReg
;;;2282           LCD_WriteReg(0x0031,0x0007); //0x0707
003a82  2107              MOVS     r1,#7
003a84  2031              MOVS     r0,#0x31
003a86  f7fffffe          BL       LCD_WriteReg
;;;2283           LCD_WriteReg(0x0032,0x0603); 
003a8a  f2406103          MOV      r1,#0x603
003a8e  2032              MOVS     r0,#0x32
003a90  f7fffffe          BL       LCD_WriteReg
;;;2284           LCD_WriteReg(0x0033,0x0700); 
003a94  f44f61e0          MOV      r1,#0x700
003a98  2033              MOVS     r0,#0x33
003a9a  f7fffffe          BL       LCD_WriteReg
;;;2285           LCD_WriteReg(0x0034,0x0202); 
003a9e  f2402102          MOV      r1,#0x202
003aa2  2034              MOVS     r0,#0x34
003aa4  f7fffffe          BL       LCD_WriteReg
;;;2286           LCD_WriteReg(0x0035,0x0002); //?0x0606
003aa8  2102              MOVS     r1,#2
003aaa  2035              MOVS     r0,#0x35
003aac  f7fffffe          BL       LCD_WriteReg
;;;2287           LCD_WriteReg(0x0036,0x1F0F);
003ab0  f641710f          MOV      r1,#0x1f0f
003ab4  2036              MOVS     r0,#0x36
003ab6  f7fffffe          BL       LCD_WriteReg
;;;2288           LCD_WriteReg(0x0037,0x0707); //0x0f0f  0x0105
003aba  f2407107          MOV      r1,#0x707
003abe  2037              MOVS     r0,#0x37
003ac0  f7fffffe          BL       LCD_WriteReg
;;;2289           LCD_WriteReg(0x0038,0x0000); 
003ac4  2100              MOVS     r1,#0
003ac6  2038              MOVS     r0,#0x38
003ac8  f7fffffe          BL       LCD_WriteReg
;;;2290           LCD_WriteReg(0x0039,0x0000); 
003acc  2100              MOVS     r1,#0
003ace  2039              MOVS     r0,#0x39
003ad0  f7fffffe          BL       LCD_WriteReg
;;;2291           LCD_WriteReg(0x003A,0x0707); 
003ad4  f2407107          MOV      r1,#0x707
003ad8  203a              MOVS     r0,#0x3a
003ada  f7fffffe          BL       LCD_WriteReg
;;;2292           LCD_WriteReg(0x003B,0x0000); //0x0303
003ade  2100              MOVS     r1,#0
003ae0  203b              MOVS     r0,#0x3b
003ae2  f7fffffe          BL       LCD_WriteReg
;;;2293           LCD_WriteReg(0x003C,0x0007); //?0x0707
003ae6  2107              MOVS     r1,#7
003ae8  203c              MOVS     r0,#0x3c
003aea  f7fffffe          BL       LCD_WriteReg
;;;2294           LCD_WriteReg(0x003D,0x0000); //0x1313//0x1f08
003aee  2100              MOVS     r1,#0
003af0  203d              MOVS     r0,#0x3d
003af2  f7fffffe          BL       LCD_WriteReg
;;;2295           delay_ms(50); 
003af6  2032              MOVS     r0,#0x32
003af8  f7fffffe          BL       delay_ms
;;;2296           LCD_WriteReg(0x0007,0x0001);
003afc  2101              MOVS     r1,#1
003afe  2007              MOVS     r0,#7
003b00  f7fffffe          BL       LCD_WriteReg
;;;2297           LCD_WriteReg(0x0017,0x0001);//开启电源
003b04  2101              MOVS     r1,#1
003b06  e001              B        |L1.15116|
                  |L1.15112|
                          DCD      lcddev
                  |L1.15116|
003b0c  2017              MOVS     r0,#0x17
003b0e  f7fffffe          BL       LCD_WriteReg
;;;2298           delay_ms(50); 
003b12  2032              MOVS     r0,#0x32
003b14  f7fffffe          BL       delay_ms
;;;2299     		//电源配置
;;;2300           LCD_WriteReg(0x0010,0x17A0); 
003b18  f44f51bd          MOV      r1,#0x17a0
003b1c  2010              MOVS     r0,#0x10
003b1e  f7fffffe          BL       LCD_WriteReg
;;;2301           LCD_WriteReg(0x0011,0x0217);//reference voltage VC[2:0]   Vciout = 1.00*Vcivl
003b22  f2402117          MOV      r1,#0x217
003b26  2011              MOVS     r0,#0x11
003b28  f7fffffe          BL       LCD_WriteReg
;;;2302           LCD_WriteReg(0x0012,0x011E);//0x011c  //Vreg1out = Vcilvl*1.80   is it the same as Vgama1out ?
003b2c  f44f718f          MOV      r1,#0x11e
003b30  2012              MOVS     r0,#0x12
003b32  f7fffffe          BL       LCD_WriteReg
;;;2303           LCD_WriteReg(0x0013,0x0F00);//VDV[4:0]-->VCOM Amplitude VcomL = VcomH - Vcom Ampl
003b36  f44f6170          MOV      r1,#0xf00
003b3a  e000              B        |L1.15166|
                  |L1.15164|
003b3c  e098              B        |L1.15472|
                  |L1.15166|
003b3e  2013              MOVS     r0,#0x13
003b40  f7fffffe          BL       LCD_WriteReg
;;;2304           LCD_WriteReg(0x002A,0x0000);  
003b44  2100              MOVS     r1,#0
003b46  202a              MOVS     r0,#0x2a
003b48  f7fffffe          BL       LCD_WriteReg
;;;2305           LCD_WriteReg(0x0029,0x000A);//0x0001F  Vcomh = VCM1[4:0]*Vreg1out    gate source voltage??
003b4c  210a              MOVS     r1,#0xa
003b4e  2029              MOVS     r0,#0x29
003b50  f7fffffe          BL       LCD_WriteReg
;;;2306           LCD_WriteReg(0x0012,0x013E);// 0x013C  power supply on
003b54  f44f719f          MOV      r1,#0x13e
003b58  2012              MOVS     r0,#0x12
003b5a  f7fffffe          BL       LCD_WriteReg
;;;2307           //Coordinates Control//
;;;2308           LCD_WriteReg(0x0050,0x0000);//0x0e00
003b5e  2100              MOVS     r1,#0
003b60  2050              MOVS     r0,#0x50
003b62  f7fffffe          BL       LCD_WriteReg
;;;2309           LCD_WriteReg(0x0051,0x00EF); 
003b66  21ef              MOVS     r1,#0xef
003b68  2051              MOVS     r0,#0x51
003b6a  f7fffffe          BL       LCD_WriteReg
;;;2310           LCD_WriteReg(0x0052,0x0000); 
003b6e  2100              MOVS     r1,#0
003b70  2052              MOVS     r0,#0x52
003b72  f7fffffe          BL       LCD_WriteReg
;;;2311           LCD_WriteReg(0x0053,0x013F); 
003b76  f240113f          MOV      r1,#0x13f
003b7a  2053              MOVS     r0,#0x53
003b7c  f7fffffe          BL       LCD_WriteReg
;;;2312       	//Pannel Image Control//
;;;2313           LCD_WriteReg(0x0060,0x2700); 
003b80  f44f511c          MOV      r1,#0x2700
003b84  2060              MOVS     r0,#0x60
003b86  f7fffffe          BL       LCD_WriteReg
;;;2314           LCD_WriteReg(0x0061,0x0001); 
003b8a  2101              MOVS     r1,#1
003b8c  2061              MOVS     r0,#0x61
003b8e  f7fffffe          BL       LCD_WriteReg
;;;2315           LCD_WriteReg(0x006A,0x0000); 
003b92  2100              MOVS     r1,#0
003b94  206a              MOVS     r0,#0x6a
003b96  f7fffffe          BL       LCD_WriteReg
;;;2316           LCD_WriteReg(0x0080,0x0000); 
003b9a  2100              MOVS     r1,#0
003b9c  2080              MOVS     r0,#0x80
003b9e  f7fffffe          BL       LCD_WriteReg
;;;2317       	//Partial Image Control//
;;;2318           LCD_WriteReg(0x0081,0x0000); 
003ba2  2100              MOVS     r1,#0
003ba4  2081              MOVS     r0,#0x81
003ba6  f7fffffe          BL       LCD_WriteReg
;;;2319           LCD_WriteReg(0x0082,0x0000); 
003baa  2100              MOVS     r1,#0
003bac  2082              MOVS     r0,#0x82
003bae  f7fffffe          BL       LCD_WriteReg
;;;2320           LCD_WriteReg(0x0083,0x0000); 
003bb2  2100              MOVS     r1,#0
003bb4  2083              MOVS     r0,#0x83
003bb6  f7fffffe          BL       LCD_WriteReg
;;;2321           LCD_WriteReg(0x0084,0x0000); 
003bba  2100              MOVS     r1,#0
003bbc  2084              MOVS     r0,#0x84
003bbe  f7fffffe          BL       LCD_WriteReg
;;;2322           LCD_WriteReg(0x0085,0x0000); 
003bc2  2100              MOVS     r1,#0
003bc4  2085              MOVS     r0,#0x85
003bc6  f7fffffe          BL       LCD_WriteReg
;;;2323     		//Panel Interface Control//
;;;2324           LCD_WriteReg(0x0090,0x0013);//0x0010 frenqucy
003bca  2113              MOVS     r1,#0x13
003bcc  2090              MOVS     r0,#0x90
003bce  f7fffffe          BL       LCD_WriteReg
;;;2325           LCD_WriteReg(0x0092,0x0300); 
003bd2  f44f7140          MOV      r1,#0x300
003bd6  2092              MOVS     r0,#0x92
003bd8  f7fffffe          BL       LCD_WriteReg
;;;2326           LCD_WriteReg(0x0093,0x0005); 
003bdc  2105              MOVS     r1,#5
003bde  2093              MOVS     r0,#0x93
003be0  f7fffffe          BL       LCD_WriteReg
;;;2327           LCD_WriteReg(0x0095,0x0000); 
003be4  2100              MOVS     r1,#0
003be6  2095              MOVS     r0,#0x95
003be8  f7fffffe          BL       LCD_WriteReg
;;;2328           LCD_WriteReg(0x0097,0x0000); 
003bec  2100              MOVS     r1,#0
003bee  2097              MOVS     r0,#0x97
003bf0  f7fffffe          BL       LCD_WriteReg
;;;2329           LCD_WriteReg(0x0098,0x0000); 
003bf4  2100              MOVS     r1,#0
003bf6  2098              MOVS     r0,#0x98
003bf8  f7fffffe          BL       LCD_WriteReg
;;;2330     
;;;2331           LCD_WriteReg(0x0001,0x0100); 
003bfc  f44f7180          MOV      r1,#0x100
003c00  2001              MOVS     r0,#1
003c02  f7fffffe          BL       LCD_WriteReg
;;;2332           LCD_WriteReg(0x0002,0x0700); 
003c06  f44f61e0          MOV      r1,#0x700
003c0a  2002              MOVS     r0,#2
003c0c  f7fffffe          BL       LCD_WriteReg
;;;2333           LCD_WriteReg(0x0003,0x1038);//扫描方向 上->下  左->右 
003c10  f2410138          MOV      r1,#0x1038
003c14  2003              MOVS     r0,#3
003c16  f7fffffe          BL       LCD_WriteReg
;;;2334           LCD_WriteReg(0x0004,0x0000); 
003c1a  2100              MOVS     r1,#0
003c1c  2004              MOVS     r0,#4
003c1e  f7fffffe          BL       LCD_WriteReg
;;;2335           LCD_WriteReg(0x000C,0x0000); 
003c22  2100              MOVS     r1,#0
003c24  200c              MOVS     r0,#0xc
003c26  f7fffffe          BL       LCD_WriteReg
;;;2336           LCD_WriteReg(0x000F,0x0000); 
003c2a  2100              MOVS     r1,#0
003c2c  200f              MOVS     r0,#0xf
003c2e  f7fffffe          BL       LCD_WriteReg
;;;2337           LCD_WriteReg(0x0020,0x0000); 
003c32  2100              MOVS     r1,#0
003c34  2020              MOVS     r0,#0x20
003c36  f7fffffe          BL       LCD_WriteReg
;;;2338           LCD_WriteReg(0x0021,0x0000); 
003c3a  2100              MOVS     r1,#0
003c3c  2021              MOVS     r0,#0x21
003c3e  f7fffffe          BL       LCD_WriteReg
;;;2339           LCD_WriteReg(0x0007,0x0021); 
003c42  2121              MOVS     r1,#0x21
003c44  2007              MOVS     r0,#7
003c46  f7fffffe          BL       LCD_WriteReg
;;;2340           delay_ms(20);
003c4a  2014              MOVS     r0,#0x14
003c4c  f7fffffe          BL       delay_ms
;;;2341           LCD_WriteReg(0x0007,0x0061); 
003c50  2161              MOVS     r1,#0x61
003c52  2007              MOVS     r0,#7
003c54  f7fffffe          BL       LCD_WriteReg
;;;2342           delay_ms(20);
003c58  2014              MOVS     r0,#0x14
003c5a  f7fffffe          BL       delay_ms
;;;2343           LCD_WriteReg(0x0007,0x0173); 
003c5e  f2401173          MOV      r1,#0x173
003c62  2007              MOVS     r0,#7
003c64  f7fffffe          BL       LCD_WriteReg
;;;2344           delay_ms(20);
003c68  2014              MOVS     r0,#0x14
003c6a  f7fffffe          BL       delay_ms
003c6e  e495              B        |L1.13724|
                  |L1.15472|
;;;2345   	}else if(lcddev.id==0xB505)
003c70  48fe              LDR      r0,|L1.16492|
003c72  8880              LDRH     r0,[r0,#4]  ; lcddev
003c74  f24b5105          MOV      r1,#0xb505
003c78  4288              CMP      r0,r1
003c7a  d17c              BNE      |L1.15734|
;;;2346   	{
;;;2347   		LCD_WriteReg(0x0000,0x0000);
003c7c  2100              MOVS     r1,#0
003c7e  4608              MOV      r0,r1
003c80  f7fffffe          BL       LCD_WriteReg
;;;2348   		LCD_WriteReg(0x0000,0x0000);
003c84  2100              MOVS     r1,#0
003c86  4608              MOV      r0,r1
003c88  f7fffffe          BL       LCD_WriteReg
;;;2349   		LCD_WriteReg(0x0000,0x0000);
003c8c  2100              MOVS     r1,#0
003c8e  4608              MOV      r0,r1
003c90  f7fffffe          BL       LCD_WriteReg
;;;2350   		LCD_WriteReg(0x0000,0x0000);
003c94  2100              MOVS     r1,#0
003c96  4608              MOV      r0,r1
003c98  f7fffffe          BL       LCD_WriteReg
;;;2351   		
;;;2352   		LCD_WriteReg(0x00a4,0x0001);
003c9c  2101              MOVS     r1,#1
003c9e  20a4              MOVS     r0,#0xa4
003ca0  f7fffffe          BL       LCD_WriteReg
;;;2353   		delay_ms(20);		  
003ca4  2014              MOVS     r0,#0x14
003ca6  f7fffffe          BL       delay_ms
;;;2354   		LCD_WriteReg(0x0060,0x2700);
003caa  f44f511c          MOV      r1,#0x2700
003cae  2060              MOVS     r0,#0x60
003cb0  f7fffffe          BL       LCD_WriteReg
;;;2355   		LCD_WriteReg(0x0008,0x0202);
003cb4  f2402102          MOV      r1,#0x202
003cb8  2008              MOVS     r0,#8
003cba  f7fffffe          BL       LCD_WriteReg
;;;2356   		
;;;2357   		LCD_WriteReg(0x0030,0x0214);
003cbe  f44f7105          MOV      r1,#0x214
003cc2  2030              MOVS     r0,#0x30
003cc4  f7fffffe          BL       LCD_WriteReg
;;;2358   		LCD_WriteReg(0x0031,0x3715);
003cc8  f2437115          MOV      r1,#0x3715
003ccc  2031              MOVS     r0,#0x31
003cce  f7fffffe          BL       LCD_WriteReg
;;;2359   		LCD_WriteReg(0x0032,0x0604);
003cd2  f2406104          MOV      r1,#0x604
003cd6  2032              MOVS     r0,#0x32
003cd8  f7fffffe          BL       LCD_WriteReg
;;;2360   		LCD_WriteReg(0x0033,0x0e16);
003cdc  f6406116          MOV      r1,#0xe16
003ce0  2033              MOVS     r0,#0x33
003ce2  f7fffffe          BL       LCD_WriteReg
;;;2361   		LCD_WriteReg(0x0034,0x2211);
003ce6  f2422111          MOV      r1,#0x2211
003cea  2034              MOVS     r0,#0x34
003cec  f7fffffe          BL       LCD_WriteReg
;;;2362   		LCD_WriteReg(0x0035,0x1500);
003cf0  f44f51a8          MOV      r1,#0x1500
003cf4  2035              MOVS     r0,#0x35
003cf6  f7fffffe          BL       LCD_WriteReg
;;;2363   		LCD_WriteReg(0x0036,0x8507);
003cfa  f2485107          MOV      r1,#0x8507
003cfe  2036              MOVS     r0,#0x36
003d00  f7fffffe          BL       LCD_WriteReg
;;;2364   		LCD_WriteReg(0x0037,0x1407);
003d04  f2414107          MOV      r1,#0x1407
003d08  2037              MOVS     r0,#0x37
003d0a  f7fffffe          BL       LCD_WriteReg
;;;2365   		LCD_WriteReg(0x0038,0x1403);
003d0e  f2414103          MOV      r1,#0x1403
003d12  2038              MOVS     r0,#0x38
003d14  f7fffffe          BL       LCD_WriteReg
;;;2366   		LCD_WriteReg(0x0039,0x0020);
003d18  2120              MOVS     r1,#0x20
003d1a  2039              MOVS     r0,#0x39
003d1c  f7fffffe          BL       LCD_WriteReg
;;;2367   		
;;;2368   		LCD_WriteReg(0x0090,0x001a);
003d20  211a              MOVS     r1,#0x1a
003d22  2090              MOVS     r0,#0x90
003d24  f7fffffe          BL       LCD_WriteReg
;;;2369   		LCD_WriteReg(0x0010,0x0000);
003d28  2100              MOVS     r1,#0
003d2a  2010              MOVS     r0,#0x10
003d2c  f7fffffe          BL       LCD_WriteReg
;;;2370   		LCD_WriteReg(0x0011,0x0007);
003d30  2107              MOVS     r1,#7
003d32  2011              MOVS     r0,#0x11
003d34  f7fffffe          BL       LCD_WriteReg
;;;2371   		LCD_WriteReg(0x0012,0x0000);
003d38  2100              MOVS     r1,#0
003d3a  2012              MOVS     r0,#0x12
003d3c  f7fffffe          BL       LCD_WriteReg
;;;2372   		LCD_WriteReg(0x0013,0x0000);
003d40  2100              MOVS     r1,#0
003d42  2013              MOVS     r0,#0x13
003d44  f7fffffe          BL       LCD_WriteReg
;;;2373   		delay_ms(20);
003d48  2014              MOVS     r0,#0x14
003d4a  f7fffffe          BL       delay_ms
;;;2374   		
;;;2375   		LCD_WriteReg(0x0010,0x0730);
003d4e  f44f61e6          MOV      r1,#0x730
003d52  2010              MOVS     r0,#0x10
003d54  f7fffffe          BL       LCD_WriteReg
;;;2376   		LCD_WriteReg(0x0011,0x0137);
003d58  f2401137          MOV      r1,#0x137
003d5c  2011              MOVS     r0,#0x11
003d5e  f7fffffe          BL       LCD_WriteReg
;;;2377   		delay_ms(20);
003d62  2014              MOVS     r0,#0x14
003d64  f7fffffe          BL       delay_ms
;;;2378   		
;;;2379   		LCD_WriteReg(0x0012,0x01b8);
003d68  f44f71dc          MOV      r1,#0x1b8
003d6c  2012              MOVS     r0,#0x12
003d6e  f7fffffe          BL       LCD_WriteReg
;;;2380   		delay_ms(20);
003d72  2014              MOVS     r0,#0x14
003d74  e000              B        |L1.15736|
                  |L1.15734|
003d76  e085              B        |L1.16004|
                  |L1.15736|
003d78  f7fffffe          BL       delay_ms
;;;2381   		
;;;2382   		LCD_WriteReg(0x0013,0x0f00);
003d7c  f44f6170          MOV      r1,#0xf00
003d80  2013              MOVS     r0,#0x13
003d82  f7fffffe          BL       LCD_WriteReg
;;;2383   		LCD_WriteReg(0x002a,0x0080);
003d86  2180              MOVS     r1,#0x80
003d88  202a              MOVS     r0,#0x2a
003d8a  f7fffffe          BL       LCD_WriteReg
;;;2384   		LCD_WriteReg(0x0029,0x0048);
003d8e  2148              MOVS     r1,#0x48
003d90  2029              MOVS     r0,#0x29
003d92  f7fffffe          BL       LCD_WriteReg
;;;2385   		delay_ms(20);
003d96  2014              MOVS     r0,#0x14
003d98  f7fffffe          BL       delay_ms
;;;2386   		
;;;2387   		LCD_WriteReg(0x0001,0x0100);
003d9c  f44f7180          MOV      r1,#0x100
003da0  2001              MOVS     r0,#1
003da2  f7fffffe          BL       LCD_WriteReg
;;;2388   		LCD_WriteReg(0x0002,0x0700);
003da6  f44f61e0          MOV      r1,#0x700
003daa  2002              MOVS     r0,#2
003dac  f7fffffe          BL       LCD_WriteReg
;;;2389           LCD_WriteReg(0x0003,0x1038);//扫描方向 上->下  左->右 
003db0  f2410138          MOV      r1,#0x1038
003db4  2003              MOVS     r0,#3
003db6  f7fffffe          BL       LCD_WriteReg
;;;2390   		LCD_WriteReg(0x0008,0x0202);
003dba  f2402102          MOV      r1,#0x202
003dbe  2008              MOVS     r0,#8
003dc0  f7fffffe          BL       LCD_WriteReg
;;;2391   		LCD_WriteReg(0x000a,0x0000);
003dc4  2100              MOVS     r1,#0
003dc6  200a              MOVS     r0,#0xa
003dc8  f7fffffe          BL       LCD_WriteReg
;;;2392   		LCD_WriteReg(0x000c,0x0000);
003dcc  2100              MOVS     r1,#0
003dce  200c              MOVS     r0,#0xc
003dd0  f7fffffe          BL       LCD_WriteReg
;;;2393   		LCD_WriteReg(0x000d,0x0000);
003dd4  2100              MOVS     r1,#0
003dd6  200d              MOVS     r0,#0xd
003dd8  f7fffffe          BL       LCD_WriteReg
;;;2394   		LCD_WriteReg(0x000e,0x0030);
003ddc  2130              MOVS     r1,#0x30
003dde  200e              MOVS     r0,#0xe
003de0  f7fffffe          BL       LCD_WriteReg
;;;2395   		LCD_WriteReg(0x0050,0x0000);
003de4  2100              MOVS     r1,#0
003de6  2050              MOVS     r0,#0x50
003de8  f7fffffe          BL       LCD_WriteReg
;;;2396   		LCD_WriteReg(0x0051,0x00ef);
003dec  21ef              MOVS     r1,#0xef
003dee  2051              MOVS     r0,#0x51
003df0  f7fffffe          BL       LCD_WriteReg
;;;2397   		LCD_WriteReg(0x0052,0x0000);
003df4  2100              MOVS     r1,#0
003df6  2052              MOVS     r0,#0x52
003df8  f7fffffe          BL       LCD_WriteReg
;;;2398   		LCD_WriteReg(0x0053,0x013f);
003dfc  f240113f          MOV      r1,#0x13f
003e00  2053              MOVS     r0,#0x53
003e02  f7fffffe          BL       LCD_WriteReg
;;;2399   		LCD_WriteReg(0x0060,0x2700);
003e06  f44f511c          MOV      r1,#0x2700
003e0a  2060              MOVS     r0,#0x60
003e0c  f7fffffe          BL       LCD_WriteReg
;;;2400   		LCD_WriteReg(0x0061,0x0001);
003e10  2101              MOVS     r1,#1
003e12  2061              MOVS     r0,#0x61
003e14  f7fffffe          BL       LCD_WriteReg
;;;2401   		LCD_WriteReg(0x006a,0x0000);
003e18  2100              MOVS     r1,#0
003e1a  206a              MOVS     r0,#0x6a
003e1c  f7fffffe          BL       LCD_WriteReg
;;;2402   		//LCD_WriteReg(0x0080,0x0000);
;;;2403   		//LCD_WriteReg(0x0081,0x0000);
;;;2404   		LCD_WriteReg(0x0090,0X0011);
003e20  2111              MOVS     r1,#0x11
003e22  2090              MOVS     r0,#0x90
003e24  f7fffffe          BL       LCD_WriteReg
;;;2405   		LCD_WriteReg(0x0092,0x0600);
003e28  f44f61c0          MOV      r1,#0x600
003e2c  2092              MOVS     r0,#0x92
003e2e  f7fffffe          BL       LCD_WriteReg
;;;2406   		LCD_WriteReg(0x0093,0x0402);
003e32  f2404102          MOV      r1,#0x402
003e36  2093              MOVS     r0,#0x93
003e38  f7fffffe          BL       LCD_WriteReg
;;;2407   		LCD_WriteReg(0x0094,0x0002);
003e3c  2102              MOVS     r1,#2
003e3e  2094              MOVS     r0,#0x94
003e40  f7fffffe          BL       LCD_WriteReg
;;;2408   		delay_ms(20);
003e44  2014              MOVS     r0,#0x14
003e46  f7fffffe          BL       delay_ms
;;;2409   		
;;;2410   		LCD_WriteReg(0x0007,0x0001);
003e4a  2101              MOVS     r1,#1
003e4c  2007              MOVS     r0,#7
003e4e  f7fffffe          BL       LCD_WriteReg
;;;2411   		delay_ms(20);
003e52  2014              MOVS     r0,#0x14
003e54  f7fffffe          BL       delay_ms
;;;2412   		LCD_WriteReg(0x0007,0x0061);
003e58  2161              MOVS     r1,#0x61
003e5a  2007              MOVS     r0,#7
003e5c  f7fffffe          BL       LCD_WriteReg
;;;2413   		LCD_WriteReg(0x0007,0x0173);
003e60  f2401173          MOV      r1,#0x173
003e64  2007              MOVS     r0,#7
003e66  f7fffffe          BL       LCD_WriteReg
;;;2414   		
;;;2415   		LCD_WriteReg(0x0020,0x0000);
003e6a  2100              MOVS     r1,#0
003e6c  2020              MOVS     r0,#0x20
003e6e  f7fffffe          BL       LCD_WriteReg
;;;2416   		LCD_WriteReg(0x0021,0x0000);	  
003e72  2100              MOVS     r1,#0
003e74  2021              MOVS     r0,#0x21
003e76  f7fffffe          BL       LCD_WriteReg
;;;2417   		LCD_WriteReg(0x00,0x22);  
003e7a  2122              MOVS     r1,#0x22
003e7c  2000              MOVS     r0,#0
003e7e  f7fffffe          BL       LCD_WriteReg
003e82  e311              B        |L1.17576|
                  |L1.16004|
;;;2418   	}else if(lcddev.id==0xC505)
003e84  4879              LDR      r0,|L1.16492|
003e86  8880              LDRH     r0,[r0,#4]  ; lcddev
003e88  f24c5105          MOV      r1,#0xc505
003e8c  4288              CMP      r0,r1
003e8e  d17c              BNE      |L1.16266|
;;;2419   	{
;;;2420   		LCD_WriteReg(0x0000,0x0000);
003e90  2100              MOVS     r1,#0
003e92  4608              MOV      r0,r1
003e94  f7fffffe          BL       LCD_WriteReg
;;;2421   		LCD_WriteReg(0x0000,0x0000);
003e98  2100              MOVS     r1,#0
003e9a  4608              MOV      r0,r1
003e9c  f7fffffe          BL       LCD_WriteReg
;;;2422   		delay_ms(20);		  
003ea0  2014              MOVS     r0,#0x14
003ea2  f7fffffe          BL       delay_ms
;;;2423   		LCD_WriteReg(0x0000,0x0000);
003ea6  2100              MOVS     r1,#0
003ea8  4608              MOV      r0,r1
003eaa  f7fffffe          BL       LCD_WriteReg
;;;2424   		LCD_WriteReg(0x0000,0x0000);
003eae  2100              MOVS     r1,#0
003eb0  4608              MOV      r0,r1
003eb2  f7fffffe          BL       LCD_WriteReg
;;;2425   		LCD_WriteReg(0x0000,0x0000);
003eb6  2100              MOVS     r1,#0
003eb8  4608              MOV      r0,r1
003eba  f7fffffe          BL       LCD_WriteReg
;;;2426   		LCD_WriteReg(0x0000,0x0000);
003ebe  2100              MOVS     r1,#0
003ec0  4608              MOV      r0,r1
003ec2  f7fffffe          BL       LCD_WriteReg
;;;2427    		LCD_WriteReg(0x00a4,0x0001);
003ec6  2101              MOVS     r1,#1
003ec8  20a4              MOVS     r0,#0xa4
003eca  f7fffffe          BL       LCD_WriteReg
;;;2428   		delay_ms(20);		  
003ece  2014              MOVS     r0,#0x14
003ed0  f7fffffe          BL       delay_ms
;;;2429   		LCD_WriteReg(0x0060,0x2700);
003ed4  f44f511c          MOV      r1,#0x2700
003ed8  2060              MOVS     r0,#0x60
003eda  f7fffffe          BL       LCD_WriteReg
;;;2430   		LCD_WriteReg(0x0008,0x0806);
003ede  f6400106          MOV      r1,#0x806
003ee2  2008              MOVS     r0,#8
003ee4  f7fffffe          BL       LCD_WriteReg
;;;2431   		
;;;2432   		LCD_WriteReg(0x0030,0x0703);//gamma setting
003ee8  f2407103          MOV      r1,#0x703
003eec  2030              MOVS     r0,#0x30
003eee  f7fffffe          BL       LCD_WriteReg
;;;2433   		LCD_WriteReg(0x0031,0x0001);
003ef2  2101              MOVS     r1,#1
003ef4  2031              MOVS     r0,#0x31
003ef6  f7fffffe          BL       LCD_WriteReg
;;;2434   		LCD_WriteReg(0x0032,0x0004);
003efa  2104              MOVS     r1,#4
003efc  2032              MOVS     r0,#0x32
003efe  f7fffffe          BL       LCD_WriteReg
;;;2435   		LCD_WriteReg(0x0033,0x0102);
003f02  f44f7181          MOV      r1,#0x102
003f06  2033              MOVS     r0,#0x33
003f08  f7fffffe          BL       LCD_WriteReg
;;;2436   		LCD_WriteReg(0x0034,0x0300);
003f0c  f44f7140          MOV      r1,#0x300
003f10  2034              MOVS     r0,#0x34
003f12  f7fffffe          BL       LCD_WriteReg
;;;2437   		LCD_WriteReg(0x0035,0x0103);
003f16  f2401103          MOV      r1,#0x103
003f1a  2035              MOVS     r0,#0x35
003f1c  f7fffffe          BL       LCD_WriteReg
;;;2438   		LCD_WriteReg(0x0036,0x001F);
003f20  211f              MOVS     r1,#0x1f
003f22  2036              MOVS     r0,#0x36
003f24  f7fffffe          BL       LCD_WriteReg
;;;2439   		LCD_WriteReg(0x0037,0x0703);
003f28  f2407103          MOV      r1,#0x703
003f2c  2037              MOVS     r0,#0x37
003f2e  f7fffffe          BL       LCD_WriteReg
;;;2440   		LCD_WriteReg(0x0038,0x0001);
003f32  2101              MOVS     r1,#1
003f34  2038              MOVS     r0,#0x38
003f36  f7fffffe          BL       LCD_WriteReg
;;;2441   		LCD_WriteReg(0x0039,0x0004);
003f3a  2104              MOVS     r1,#4
003f3c  2039              MOVS     r0,#0x39
003f3e  f7fffffe          BL       LCD_WriteReg
;;;2442   		
;;;2443   		
;;;2444   		
;;;2445   		LCD_WriteReg(0x0090, 0x0015);	//80Hz
003f42  2115              MOVS     r1,#0x15
003f44  2090              MOVS     r0,#0x90
003f46  f7fffffe          BL       LCD_WriteReg
;;;2446   		LCD_WriteReg(0x0010, 0X0410);	//BT,AP
003f4a  f44f6182          MOV      r1,#0x410
003f4e  2010              MOVS     r0,#0x10
003f50  f7fffffe          BL       LCD_WriteReg
;;;2447   		LCD_WriteReg(0x0011,0x0247);	//DC1,DC0,VC
003f54  f2402147          MOV      r1,#0x247
003f58  2011              MOVS     r0,#0x11
003f5a  f7fffffe          BL       LCD_WriteReg
;;;2448   		LCD_WriteReg(0x0012, 0x01BC);
003f5e  f44f71de          MOV      r1,#0x1bc
003f62  2012              MOVS     r0,#0x12
003f64  f7fffffe          BL       LCD_WriteReg
;;;2449   		LCD_WriteReg(0x0013, 0x0e00);
003f68  f44f6160          MOV      r1,#0xe00
003f6c  2013              MOVS     r0,#0x13
003f6e  f7fffffe          BL       LCD_WriteReg
;;;2450   		delay_ms(120);
003f72  2078              MOVS     r0,#0x78
003f74  f7fffffe          BL       delay_ms
;;;2451   		LCD_WriteReg(0x0001, 0x0100);
003f78  f44f7180          MOV      r1,#0x100
003f7c  2001              MOVS     r0,#1
003f7e  f7fffffe          BL       LCD_WriteReg
;;;2452   		LCD_WriteReg(0x0002, 0x0200);
003f82  f44f7100          MOV      r1,#0x200
003f86  2002              MOVS     r0,#2
003f88  e000              B        |L1.16268|
                  |L1.16266|
003f8a  e052              B        |L1.16434|
                  |L1.16268|
003f8c  f7fffffe          BL       LCD_WriteReg
;;;2453   		LCD_WriteReg(0x0003, 0x1030);
003f90  f2410130          MOV      r1,#0x1030
003f94  2003              MOVS     r0,#3
003f96  f7fffffe          BL       LCD_WriteReg
;;;2454   		
;;;2455   		LCD_WriteReg(0x000A, 0x0008);
003f9a  2108              MOVS     r1,#8
003f9c  200a              MOVS     r0,#0xa
003f9e  f7fffffe          BL       LCD_WriteReg
;;;2456   		LCD_WriteReg(0x000C, 0x0000);
003fa2  2100              MOVS     r1,#0
003fa4  200c              MOVS     r0,#0xc
003fa6  f7fffffe          BL       LCD_WriteReg
;;;2457   		
;;;2458   		LCD_WriteReg(0x000E, 0x0020);
003faa  2120              MOVS     r1,#0x20
003fac  200e              MOVS     r0,#0xe
003fae  f7fffffe          BL       LCD_WriteReg
;;;2459   		LCD_WriteReg(0x000F, 0x0000);
003fb2  2100              MOVS     r1,#0
003fb4  200f              MOVS     r0,#0xf
003fb6  f7fffffe          BL       LCD_WriteReg
;;;2460   		LCD_WriteReg(0x0020, 0x0000);	//H Start
003fba  2100              MOVS     r1,#0
003fbc  2020              MOVS     r0,#0x20
003fbe  f7fffffe          BL       LCD_WriteReg
;;;2461   		LCD_WriteReg(0x0021, 0x0000);	//V Start
003fc2  2100              MOVS     r1,#0
003fc4  2021              MOVS     r0,#0x21
003fc6  f7fffffe          BL       LCD_WriteReg
;;;2462   		LCD_WriteReg(0x002A,0x003D);	//vcom2
003fca  213d              MOVS     r1,#0x3d
003fcc  202a              MOVS     r0,#0x2a
003fce  f7fffffe          BL       LCD_WriteReg
;;;2463   		delay_ms(20);
003fd2  2014              MOVS     r0,#0x14
003fd4  f7fffffe          BL       delay_ms
;;;2464   		LCD_WriteReg(0x0029, 0x002d);
003fd8  212d              MOVS     r1,#0x2d
003fda  2029              MOVS     r0,#0x29
003fdc  f7fffffe          BL       LCD_WriteReg
;;;2465   		LCD_WriteReg(0x0050, 0x0000);
003fe0  2100              MOVS     r1,#0
003fe2  2050              MOVS     r0,#0x50
003fe4  f7fffffe          BL       LCD_WriteReg
;;;2466   		LCD_WriteReg(0x0051, 0xD0EF);
003fe8  f24d01ef          MOV      r1,#0xd0ef
003fec  2051              MOVS     r0,#0x51
003fee  f7fffffe          BL       LCD_WriteReg
;;;2467   		LCD_WriteReg(0x0052, 0x0000);
003ff2  2100              MOVS     r1,#0
003ff4  2052              MOVS     r0,#0x52
003ff6  f7fffffe          BL       LCD_WriteReg
;;;2468   		LCD_WriteReg(0x0053, 0x013F);
003ffa  f240113f          MOV      r1,#0x13f
003ffe  2053              MOVS     r0,#0x53
004000  f7fffffe          BL       LCD_WriteReg
;;;2469   		LCD_WriteReg(0x0061, 0x0000);
004004  2100              MOVS     r1,#0
004006  2061              MOVS     r0,#0x61
004008  f7fffffe          BL       LCD_WriteReg
;;;2470   		LCD_WriteReg(0x006A, 0x0000);
00400c  2100              MOVS     r1,#0
00400e  206a              MOVS     r0,#0x6a
004010  f7fffffe          BL       LCD_WriteReg
;;;2471   		LCD_WriteReg(0x0092,0x0300); 
004014  f44f7140          MOV      r1,#0x300
004018  2092              MOVS     r0,#0x92
00401a  f7fffffe          BL       LCD_WriteReg
;;;2472    
;;;2473    		LCD_WriteReg(0x0093, 0x0005);
00401e  2105              MOVS     r1,#5
004020  2093              MOVS     r0,#0x93
004022  f7fffffe          BL       LCD_WriteReg
;;;2474   		LCD_WriteReg(0x0007, 0x0100);
004026  f44f7180          MOV      r1,#0x100
00402a  2007              MOVS     r0,#7
00402c  f7fffffe          BL       LCD_WriteReg
004030  e23a              B        |L1.17576|
                  |L1.16434|
;;;2475   	}else if(lcddev.id==0x4531)//OK |/|/|
004032  480e              LDR      r0,|L1.16492|
004034  8880              LDRH     r0,[r0,#4]  ; lcddev
004036  f2445131          MOV      r1,#0x4531
00403a  4288              CMP      r0,r1
00403c  d17e              BNE      |L1.16700|
;;;2476   	{
;;;2477   		LCD_WriteReg(0X00,0X0001);   
00403e  2101              MOVS     r1,#1
004040  2000              MOVS     r0,#0
004042  f7fffffe          BL       LCD_WriteReg
;;;2478   		delay_ms(10);   
004046  200a              MOVS     r0,#0xa
004048  f7fffffe          BL       delay_ms
;;;2479   		LCD_WriteReg(0X10,0X1628);   
00404c  f2416128          MOV      r1,#0x1628
004050  2010              MOVS     r0,#0x10
004052  f7fffffe          BL       LCD_WriteReg
;;;2480   		LCD_WriteReg(0X12,0X000e);//0x0006    
004056  210e              MOVS     r1,#0xe
004058  2012              MOVS     r0,#0x12
00405a  f7fffffe          BL       LCD_WriteReg
;;;2481   		LCD_WriteReg(0X13,0X0A39);   
00405e  f6402139          MOV      r1,#0xa39
004062  2013              MOVS     r0,#0x13
004064  f7fffffe          BL       LCD_WriteReg
;;;2482   		delay_ms(10);   
004068  200a              MOVS     r0,#0xa
00406a  e001              B        |L1.16496|
                  |L1.16492|
                          DCD      lcddev
                  |L1.16496|
004070  f7fffffe          BL       delay_ms
;;;2483   		LCD_WriteReg(0X11,0X0040);   
004074  2140              MOVS     r1,#0x40
004076  2011              MOVS     r0,#0x11
004078  f7fffffe          BL       LCD_WriteReg
;;;2484   		LCD_WriteReg(0X15,0X0050);   
00407c  2150              MOVS     r1,#0x50
00407e  2015              MOVS     r0,#0x15
004080  f7fffffe          BL       LCD_WriteReg
;;;2485   		delay_ms(10);   
004084  200a              MOVS     r0,#0xa
004086  f7fffffe          BL       delay_ms
;;;2486   		LCD_WriteReg(0X12,0X001e);//16    
00408a  211e              MOVS     r1,#0x1e
00408c  2012              MOVS     r0,#0x12
00408e  f7fffffe          BL       LCD_WriteReg
;;;2487   		delay_ms(10);   
004092  200a              MOVS     r0,#0xa
004094  f7fffffe          BL       delay_ms
;;;2488   		LCD_WriteReg(0X10,0X1620);   
004098  f44f51b1          MOV      r1,#0x1620
00409c  2010              MOVS     r0,#0x10
00409e  f7fffffe          BL       LCD_WriteReg
;;;2489   		LCD_WriteReg(0X13,0X2A39);   
0040a2  f6422139          MOV      r1,#0x2a39
0040a6  2013              MOVS     r0,#0x13
0040a8  f7fffffe          BL       LCD_WriteReg
;;;2490   		delay_ms(10);   
0040ac  200a              MOVS     r0,#0xa
0040ae  f7fffffe          BL       delay_ms
;;;2491   		LCD_WriteReg(0X01,0X0100);   
0040b2  f44f7180          MOV      r1,#0x100
0040b6  2001              MOVS     r0,#1
0040b8  f7fffffe          BL       LCD_WriteReg
;;;2492   		LCD_WriteReg(0X02,0X0300);   
0040bc  f44f7140          MOV      r1,#0x300
0040c0  2002              MOVS     r0,#2
0040c2  f7fffffe          BL       LCD_WriteReg
;;;2493   		LCD_WriteReg(0X03,0X1038);//改变方向的   
0040c6  f2410138          MOV      r1,#0x1038
0040ca  2003              MOVS     r0,#3
0040cc  f7fffffe          BL       LCD_WriteReg
;;;2494   		LCD_WriteReg(0X08,0X0202);   
0040d0  f2402102          MOV      r1,#0x202
0040d4  2008              MOVS     r0,#8
0040d6  f7fffffe          BL       LCD_WriteReg
;;;2495   		LCD_WriteReg(0X0A,0X0008);   
0040da  2108              MOVS     r1,#8
0040dc  200a              MOVS     r0,#0xa
0040de  f7fffffe          BL       LCD_WriteReg
;;;2496   		LCD_WriteReg(0X30,0X0000);   
0040e2  2100              MOVS     r1,#0
0040e4  2030              MOVS     r0,#0x30
0040e6  f7fffffe          BL       LCD_WriteReg
;;;2497   		LCD_WriteReg(0X31,0X0402);   
0040ea  f2404102          MOV      r1,#0x402
0040ee  2031              MOVS     r0,#0x31
0040f0  f7fffffe          BL       LCD_WriteReg
;;;2498   		LCD_WriteReg(0X32,0X0106);   
0040f4  f44f7183          MOV      r1,#0x106
0040f8  2032              MOVS     r0,#0x32
0040fa  f7fffffe          BL       LCD_WriteReg
;;;2499   		LCD_WriteReg(0X33,0X0503);   
0040fe  f2405103          MOV      r1,#0x503
004102  2033              MOVS     r0,#0x33
004104  f7fffffe          BL       LCD_WriteReg
;;;2500   		LCD_WriteReg(0X34,0X0104);   
004108  f44f7182          MOV      r1,#0x104
00410c  2034              MOVS     r0,#0x34
00410e  f7fffffe          BL       LCD_WriteReg
;;;2501   		LCD_WriteReg(0X35,0X0301);   
004112  f2403101          MOV      r1,#0x301
004116  2035              MOVS     r0,#0x35
004118  f7fffffe          BL       LCD_WriteReg
;;;2502   		LCD_WriteReg(0X36,0X0707);   
00411c  f2407107          MOV      r1,#0x707
004120  2036              MOVS     r0,#0x36
004122  f7fffffe          BL       LCD_WriteReg
;;;2503   		LCD_WriteReg(0X37,0X0305);   
004126  f2403105          MOV      r1,#0x305
00412a  2037              MOVS     r0,#0x37
00412c  f7fffffe          BL       LCD_WriteReg
;;;2504   		LCD_WriteReg(0X38,0X0208);   
004130  f44f7102          MOV      r1,#0x208
004134  2038              MOVS     r0,#0x38
004136  f7fffffe          BL       LCD_WriteReg
;;;2505   		LCD_WriteReg(0X39,0X0F0B);   
00413a  e000              B        |L1.16702|
                  |L1.16700|
00413c  e03e              B        |L1.16828|
                  |L1.16702|
00413e  f640710b          MOV      r1,#0xf0b
004142  2039              MOVS     r0,#0x39
004144  f7fffffe          BL       LCD_WriteReg
;;;2506   		LCD_WriteReg(0X41,0X0002);   
004148  2102              MOVS     r1,#2
00414a  2041              MOVS     r0,#0x41
00414c  f7fffffe          BL       LCD_WriteReg
;;;2507   		LCD_WriteReg(0X60,0X2700);   
004150  f44f511c          MOV      r1,#0x2700
004154  2060              MOVS     r0,#0x60
004156  f7fffffe          BL       LCD_WriteReg
;;;2508   		LCD_WriteReg(0X61,0X0001);   
00415a  2101              MOVS     r1,#1
00415c  2061              MOVS     r0,#0x61
00415e  f7fffffe          BL       LCD_WriteReg
;;;2509   		LCD_WriteReg(0X90,0X0210);   
004162  f44f7104          MOV      r1,#0x210
004166  2090              MOVS     r0,#0x90
004168  f7fffffe          BL       LCD_WriteReg
;;;2510   		LCD_WriteReg(0X92,0X010A);   
00416c  f44f7185          MOV      r1,#0x10a
004170  2092              MOVS     r0,#0x92
004172  f7fffffe          BL       LCD_WriteReg
;;;2511   		LCD_WriteReg(0X93,0X0004);   
004176  2104              MOVS     r1,#4
004178  2093              MOVS     r0,#0x93
00417a  f7fffffe          BL       LCD_WriteReg
;;;2512   		LCD_WriteReg(0XA0,0X0100);   
00417e  f44f7180          MOV      r1,#0x100
004182  20a0              MOVS     r0,#0xa0
004184  f7fffffe          BL       LCD_WriteReg
;;;2513   		LCD_WriteReg(0X07,0X0001);   
004188  2101              MOVS     r1,#1
00418a  2007              MOVS     r0,#7
00418c  f7fffffe          BL       LCD_WriteReg
;;;2514   		LCD_WriteReg(0X07,0X0021);   
004190  2121              MOVS     r1,#0x21
004192  2007              MOVS     r0,#7
004194  f7fffffe          BL       LCD_WriteReg
;;;2515   		LCD_WriteReg(0X07,0X0023);   
004198  2123              MOVS     r1,#0x23
00419a  2007              MOVS     r0,#7
00419c  f7fffffe          BL       LCD_WriteReg
;;;2516   		LCD_WriteReg(0X07,0X0033);   
0041a0  2133              MOVS     r1,#0x33
0041a2  2007              MOVS     r0,#7
0041a4  f7fffffe          BL       LCD_WriteReg
;;;2517   		LCD_WriteReg(0X07,0X0133);   
0041a8  f2401133          MOV      r1,#0x133
0041ac  2007              MOVS     r0,#7
0041ae  f7fffffe          BL       LCD_WriteReg
;;;2518   		LCD_WriteReg(0XA0,0X0000); 
0041b2  2100              MOVS     r1,#0
0041b4  20a0              MOVS     r0,#0xa0
0041b6  f7fffffe          BL       LCD_WriteReg
0041ba  e175              B        |L1.17576|
                  |L1.16828|
;;;2519   	}else if(lcddev.id==0x4535)
0041bc  48f7              LDR      r0,|L1.17820|
0041be  8880              LDRH     r0,[r0,#4]  ; lcddev
0041c0  f2445135          MOV      r1,#0x4535
0041c4  4288              CMP      r0,r1
0041c6  d17c              BNE      |L1.17090|
;;;2520   	{			      
;;;2521   		LCD_WriteReg(0X15,0X0030);   
0041c8  2130              MOVS     r1,#0x30
0041ca  2015              MOVS     r0,#0x15
0041cc  f7fffffe          BL       LCD_WriteReg
;;;2522   		LCD_WriteReg(0X9A,0X0010);   
0041d0  2110              MOVS     r1,#0x10
0041d2  209a              MOVS     r0,#0x9a
0041d4  f7fffffe          BL       LCD_WriteReg
;;;2523    		LCD_WriteReg(0X11,0X0020);   
0041d8  2120              MOVS     r1,#0x20
0041da  2011              MOVS     r0,#0x11
0041dc  f7fffffe          BL       LCD_WriteReg
;;;2524    		LCD_WriteReg(0X10,0X3428);   
0041e0  f2434128          MOV      r1,#0x3428
0041e4  2010              MOVS     r0,#0x10
0041e6  f7fffffe          BL       LCD_WriteReg
;;;2525   		LCD_WriteReg(0X12,0X0002);//16    
0041ea  2102              MOVS     r1,#2
0041ec  2012              MOVS     r0,#0x12
0041ee  f7fffffe          BL       LCD_WriteReg
;;;2526    		LCD_WriteReg(0X13,0X1038);   
0041f2  f2410138          MOV      r1,#0x1038
0041f6  2013              MOVS     r0,#0x13
0041f8  f7fffffe          BL       LCD_WriteReg
;;;2527   		delay_ms(40);   
0041fc  2028              MOVS     r0,#0x28
0041fe  f7fffffe          BL       delay_ms
;;;2528   		LCD_WriteReg(0X12,0X0012);//16    
004202  2112              MOVS     r1,#0x12
004204  4608              MOV      r0,r1
004206  f7fffffe          BL       LCD_WriteReg
;;;2529   		delay_ms(40);   
00420a  2028              MOVS     r0,#0x28
00420c  f7fffffe          BL       delay_ms
;;;2530     		LCD_WriteReg(0X10,0X3420);   
004210  f2434120          MOV      r1,#0x3420
004214  2010              MOVS     r0,#0x10
004216  f7fffffe          BL       LCD_WriteReg
;;;2531    		LCD_WriteReg(0X13,0X3038);   
00421a  f2430138          MOV      r1,#0x3038
00421e  2013              MOVS     r0,#0x13
004220  f7fffffe          BL       LCD_WriteReg
;;;2532   		delay_ms(70);   
004224  2046              MOVS     r0,#0x46
004226  f7fffffe          BL       delay_ms
;;;2533   		LCD_WriteReg(0X30,0X0000);   
00422a  2100              MOVS     r1,#0
00422c  2030              MOVS     r0,#0x30
00422e  f7fffffe          BL       LCD_WriteReg
;;;2534   		LCD_WriteReg(0X31,0X0402);   
004232  f2404102          MOV      r1,#0x402
004236  2031              MOVS     r0,#0x31
004238  f7fffffe          BL       LCD_WriteReg
;;;2535   		LCD_WriteReg(0X32,0X0307);   
00423c  f2403107          MOV      r1,#0x307
004240  2032              MOVS     r0,#0x32
004242  f7fffffe          BL       LCD_WriteReg
;;;2536   		LCD_WriteReg(0X33,0X0304);   
004246  f44f7141          MOV      r1,#0x304
00424a  2033              MOVS     r0,#0x33
00424c  f7fffffe          BL       LCD_WriteReg
;;;2537   		LCD_WriteReg(0X34,0X0004);   
004250  2104              MOVS     r1,#4
004252  2034              MOVS     r0,#0x34
004254  f7fffffe          BL       LCD_WriteReg
;;;2538   		LCD_WriteReg(0X35,0X0401);   
004258  f2404101          MOV      r1,#0x401
00425c  2035              MOVS     r0,#0x35
00425e  f7fffffe          BL       LCD_WriteReg
;;;2539   		LCD_WriteReg(0X36,0X0707);   
004262  f2407107          MOV      r1,#0x707
004266  2036              MOVS     r0,#0x36
004268  f7fffffe          BL       LCD_WriteReg
;;;2540   		LCD_WriteReg(0X37,0X0305);   
00426c  f2403105          MOV      r1,#0x305
004270  2037              MOVS     r0,#0x37
004272  f7fffffe          BL       LCD_WriteReg
;;;2541   		LCD_WriteReg(0X38,0X0610);   
004276  f44f61c2          MOV      r1,#0x610
00427a  2038              MOVS     r0,#0x38
00427c  f7fffffe          BL       LCD_WriteReg
;;;2542   		LCD_WriteReg(0X39,0X0610); 
004280  f44f61c2          MOV      r1,#0x610
004284  2039              MOVS     r0,#0x39
004286  f7fffffe          BL       LCD_WriteReg
;;;2543   		  
;;;2544   		LCD_WriteReg(0X01,0X0100);   
00428a  f44f7180          MOV      r1,#0x100
00428e  2001              MOVS     r0,#1
004290  f7fffffe          BL       LCD_WriteReg
;;;2545   		LCD_WriteReg(0X02,0X0300);   
004294  f44f7140          MOV      r1,#0x300
004298  2002              MOVS     r0,#2
00429a  f7fffffe          BL       LCD_WriteReg
;;;2546   		LCD_WriteReg(0X03,0X1030);//改变方向的   
00429e  f2410130          MOV      r1,#0x1030
0042a2  2003              MOVS     r0,#3
0042a4  f7fffffe          BL       LCD_WriteReg
;;;2547   		LCD_WriteReg(0X08,0X0808);   
0042a8  f6400108          MOV      r1,#0x808
0042ac  2008              MOVS     r0,#8
0042ae  f7fffffe          BL       LCD_WriteReg
;;;2548   		LCD_WriteReg(0X0A,0X0008);   
0042b2  2108              MOVS     r1,#8
0042b4  200a              MOVS     r0,#0xa
0042b6  f7fffffe          BL       LCD_WriteReg
;;;2549    		LCD_WriteReg(0X60,0X2700);   
0042ba  f44f511c          MOV      r1,#0x2700
0042be  2060              MOVS     r0,#0x60
0042c0  e000              B        |L1.17092|
                  |L1.17090|
0042c2  e033              B        |L1.17196|
                  |L1.17092|
0042c4  f7fffffe          BL       LCD_WriteReg
;;;2550   		LCD_WriteReg(0X61,0X0001);   
0042c8  2101              MOVS     r1,#1
0042ca  2061              MOVS     r0,#0x61
0042cc  f7fffffe          BL       LCD_WriteReg
;;;2551   		LCD_WriteReg(0X90,0X013E);   
0042d0  f44f719f          MOV      r1,#0x13e
0042d4  2090              MOVS     r0,#0x90
0042d6  f7fffffe          BL       LCD_WriteReg
;;;2552   		LCD_WriteReg(0X92,0X0100);   
0042da  f44f7180          MOV      r1,#0x100
0042de  2092              MOVS     r0,#0x92
0042e0  f7fffffe          BL       LCD_WriteReg
;;;2553   		LCD_WriteReg(0X93,0X0100);   
0042e4  f44f7180          MOV      r1,#0x100
0042e8  2093              MOVS     r0,#0x93
0042ea  f7fffffe          BL       LCD_WriteReg
;;;2554    		LCD_WriteReg(0XA0,0X3000);   
0042ee  f44f5140          MOV      r1,#0x3000
0042f2  20a0              MOVS     r0,#0xa0
0042f4  f7fffffe          BL       LCD_WriteReg
;;;2555    		LCD_WriteReg(0XA3,0X0010);   
0042f8  2110              MOVS     r1,#0x10
0042fa  20a3              MOVS     r0,#0xa3
0042fc  f7fffffe          BL       LCD_WriteReg
;;;2556   		LCD_WriteReg(0X07,0X0001);   
004300  2101              MOVS     r1,#1
004302  2007              MOVS     r0,#7
004304  f7fffffe          BL       LCD_WriteReg
;;;2557   		LCD_WriteReg(0X07,0X0021);   
004308  2121              MOVS     r1,#0x21
00430a  2007              MOVS     r0,#7
00430c  f7fffffe          BL       LCD_WriteReg
;;;2558   		LCD_WriteReg(0X07,0X0023);   
004310  2123              MOVS     r1,#0x23
004312  2007              MOVS     r0,#7
004314  f7fffffe          BL       LCD_WriteReg
;;;2559   		LCD_WriteReg(0X07,0X0033);   
004318  2133              MOVS     r1,#0x33
00431a  2007              MOVS     r0,#7
00431c  f7fffffe          BL       LCD_WriteReg
;;;2560   		LCD_WriteReg(0X07,0X0133);   
004320  f2401133          MOV      r1,#0x133
004324  2007              MOVS     r0,#7
004326  f7fffffe          BL       LCD_WriteReg
                  |L1.17194|
00432a  e0bd              B        |L1.17576|
                  |L1.17196|
;;;2561   	}else if(lcddev.id==0X1963)
00432c  489b              LDR      r0,|L1.17820|
00432e  8880              LDRH     r0,[r0,#4]  ; lcddev
004330  f6411163          MOV      r1,#0x1963
004334  4288              CMP      r0,r1
004336  d1f8              BNE      |L1.17194|
;;;2562   	{
;;;2563   		LCD_WR_REG(0xE2);		//Set PLL with OSC = 10MHz (hardware),	Multiplier N = 35, 250MHz < VCO < 800MHz = OSC*(N+1), VCO = 300MHz
004338  20e2              MOVS     r0,#0xe2
00433a  f7fffffe          BL       LCD_WR_REG
;;;2564   		LCD_WR_DATA(0x1D);		//参数1 
00433e  201d              MOVS     r0,#0x1d
004340  f7fffffe          BL       LCD_WR_DATA
;;;2565   		LCD_WR_DATA(0x02);		//参数2 Divider M = 2, PLL = 300/(M+1) = 100MHz
004344  2002              MOVS     r0,#2
004346  f7fffffe          BL       LCD_WR_DATA
;;;2566   		LCD_WR_DATA(0x04);		//参数3 Validate M and N values   
00434a  2004              MOVS     r0,#4
00434c  f7fffffe          BL       LCD_WR_DATA
;;;2567   		delay_us(100);
004350  2064              MOVS     r0,#0x64
004352  f7fffffe          BL       delay_us
;;;2568   		LCD_WR_REG(0xE0);		// Start PLL command
004356  20e0              MOVS     r0,#0xe0
004358  f7fffffe          BL       LCD_WR_REG
;;;2569   		LCD_WR_DATA(0x01);		// enable PLL
00435c  2001              MOVS     r0,#1
00435e  f7fffffe          BL       LCD_WR_DATA
;;;2570   		delay_ms(10);
004362  200a              MOVS     r0,#0xa
004364  f7fffffe          BL       delay_ms
;;;2571   		LCD_WR_REG(0xE0);		// Start PLL command again
004368  20e0              MOVS     r0,#0xe0
00436a  f7fffffe          BL       LCD_WR_REG
;;;2572   		LCD_WR_DATA(0x03);		// now, use PLL output as system clock	
00436e  2003              MOVS     r0,#3
004370  f7fffffe          BL       LCD_WR_DATA
;;;2573   		delay_ms(12);  
004374  200c              MOVS     r0,#0xc
004376  f7fffffe          BL       delay_ms
;;;2574   		LCD_WR_REG(0x01);		//软复位
00437a  2001              MOVS     r0,#1
00437c  f7fffffe          BL       LCD_WR_REG
;;;2575   		delay_ms(10);
004380  200a              MOVS     r0,#0xa
004382  f7fffffe          BL       delay_ms
;;;2576   		
;;;2577   		LCD_WR_REG(0xE6);		//设置像素频率,33Mhz
004386  20e6              MOVS     r0,#0xe6
004388  f7fffffe          BL       LCD_WR_REG
;;;2578   		LCD_WR_DATA(0x2F);
00438c  202f              MOVS     r0,#0x2f
00438e  f7fffffe          BL       LCD_WR_DATA
;;;2579   		LCD_WR_DATA(0xFF);
004392  20ff              MOVS     r0,#0xff
004394  f7fffffe          BL       LCD_WR_DATA
;;;2580   		LCD_WR_DATA(0xFF);
004398  20ff              MOVS     r0,#0xff
00439a  f7fffffe          BL       LCD_WR_DATA
;;;2581   		
;;;2582   		LCD_WR_REG(0xB0);		//设置LCD模式
00439e  20b0              MOVS     r0,#0xb0
0043a0  f7fffffe          BL       LCD_WR_REG
;;;2583   		LCD_WR_DATA(0x20);		//24位模式
0043a4  2020              MOVS     r0,#0x20
0043a6  f7fffffe          BL       LCD_WR_DATA
;;;2584   		LCD_WR_DATA(0x00);		//TFT 模式 
0043aa  2000              MOVS     r0,#0
0043ac  f7fffffe          BL       LCD_WR_DATA
;;;2585   	
;;;2586   		LCD_WR_DATA((SSD_HOR_RESOLUTION-1)>>8);//设置LCD水平像素
0043b0  2003              MOVS     r0,#3
0043b2  f7fffffe          BL       LCD_WR_DATA
;;;2587   		LCD_WR_DATA(SSD_HOR_RESOLUTION-1);		 
0043b6  f240301f          MOV      r0,#0x31f
0043ba  f7fffffe          BL       LCD_WR_DATA
;;;2588   		LCD_WR_DATA((SSD_VER_RESOLUTION-1)>>8);//设置LCD垂直像素
0043be  2001              MOVS     r0,#1
0043c0  f7fffffe          BL       LCD_WR_DATA
;;;2589   		LCD_WR_DATA(SSD_VER_RESOLUTION-1);		 
0043c4  f24010df          MOV      r0,#0x1df
0043c8  f7fffffe          BL       LCD_WR_DATA
;;;2590   		LCD_WR_DATA(0x00);		//RGB序列 
0043cc  2000              MOVS     r0,#0
0043ce  f7fffffe          BL       LCD_WR_DATA
;;;2591   		
;;;2592   		LCD_WR_REG(0xB4);		//Set horizontal period
0043d2  20b4              MOVS     r0,#0xb4
0043d4  f7fffffe          BL       LCD_WR_REG
;;;2593   		LCD_WR_DATA((SSD_HT-1)>>8);
0043d8  2004              MOVS     r0,#4
0043da  f7fffffe          BL       LCD_WR_DATA
;;;2594   		LCD_WR_DATA(SSD_HT-1);
0043de  f240401f          MOV      r0,#0x41f
0043e2  f7fffffe          BL       LCD_WR_DATA
;;;2595   		LCD_WR_DATA(SSD_HPS>>8);
0043e6  2000              MOVS     r0,#0
0043e8  f7fffffe          BL       LCD_WR_DATA
;;;2596   		LCD_WR_DATA(SSD_HPS);
0043ec  202e              MOVS     r0,#0x2e
0043ee  f7fffffe          BL       LCD_WR_DATA
;;;2597   		LCD_WR_DATA(SSD_HOR_PULSE_WIDTH-1);
0043f2  2000              MOVS     r0,#0
0043f4  f7fffffe          BL       LCD_WR_DATA
;;;2598   		LCD_WR_DATA(0x00);
0043f8  2000              MOVS     r0,#0
0043fa  f7fffffe          BL       LCD_WR_DATA
;;;2599   		LCD_WR_DATA(0x00);
0043fe  2000              MOVS     r0,#0
004400  f7fffffe          BL       LCD_WR_DATA
;;;2600   		LCD_WR_DATA(0x00);
004404  2000              MOVS     r0,#0
004406  f7fffffe          BL       LCD_WR_DATA
;;;2601   		LCD_WR_REG(0xB6);		//Set vertical period
00440a  20b6              MOVS     r0,#0xb6
00440c  f7fffffe          BL       LCD_WR_REG
;;;2602   		LCD_WR_DATA((SSD_VT-1)>>8);
004410  2002              MOVS     r0,#2
004412  f7fffffe          BL       LCD_WR_DATA
;;;2603   		LCD_WR_DATA(SSD_VT-1);
004416  f44f7003          MOV      r0,#0x20c
00441a  f7fffffe          BL       LCD_WR_DATA
;;;2604   		LCD_WR_DATA(SSD_VPS>>8);
00441e  2000              MOVS     r0,#0
004420  f7fffffe          BL       LCD_WR_DATA
;;;2605   		LCD_WR_DATA(SSD_VPS);
004424  2017              MOVS     r0,#0x17
004426  f7fffffe          BL       LCD_WR_DATA
;;;2606   		LCD_WR_DATA(SSD_VER_FRONT_PORCH-1);
00442a  2015              MOVS     r0,#0x15
00442c  f7fffffe          BL       LCD_WR_DATA
;;;2607   		LCD_WR_DATA(0x00);
004430  2000              MOVS     r0,#0
004432  f7fffffe          BL       LCD_WR_DATA
;;;2608   		LCD_WR_DATA(0x00);
004436  2000              MOVS     r0,#0
004438  f7fffffe          BL       LCD_WR_DATA
;;;2609   		
;;;2610   		LCD_WR_REG(0xF0);	//设置SSD1963与CPU接口为16bit  
00443c  20f0              MOVS     r0,#0xf0
00443e  f7fffffe          BL       LCD_WR_REG
;;;2611   		LCD_WR_DATA(0x03);	//16-bit(565 format) data for 16bpp 
004442  2003              MOVS     r0,#3
004444  f7fffffe          BL       LCD_WR_DATA
;;;2612   
;;;2613   		LCD_WR_REG(0x29);	//开启显示
004448  2029              MOVS     r0,#0x29
00444a  f7fffffe          BL       LCD_WR_REG
;;;2614   		//设置PWM输出  背光通过占空比可调 
;;;2615   		LCD_WR_REG(0xD0);	//设置自动白平衡DBC
00444e  20d0              MOVS     r0,#0xd0
004450  f7fffffe          BL       LCD_WR_REG
;;;2616   		LCD_WR_DATA(0x00);	//disable
004454  2000              MOVS     r0,#0
004456  f7fffffe          BL       LCD_WR_DATA
;;;2617   	
;;;2618   		LCD_WR_REG(0xBE);	//配置PWM输出
00445a  20be              MOVS     r0,#0xbe
00445c  f7fffffe          BL       LCD_WR_REG
;;;2619   		LCD_WR_DATA(0x05);	//1设置PWM频率
004460  2005              MOVS     r0,#5
004462  f7fffffe          BL       LCD_WR_DATA
;;;2620   		LCD_WR_DATA(0xFE);	//2设置PWM占空比
004466  20fe              MOVS     r0,#0xfe
004468  f7fffffe          BL       LCD_WR_DATA
;;;2621   		LCD_WR_DATA(0x01);	//3设置C
00446c  2001              MOVS     r0,#1
00446e  f7fffffe          BL       LCD_WR_DATA
;;;2622   		LCD_WR_DATA(0x00);	//4设置D
004472  2000              MOVS     r0,#0
004474  f7fffffe          BL       LCD_WR_DATA
;;;2623   		LCD_WR_DATA(0x00);	//5设置E 
004478  2000              MOVS     r0,#0
00447a  f7fffffe          BL       LCD_WR_DATA
;;;2624   		LCD_WR_DATA(0x00);	//6设置F 
00447e  2000              MOVS     r0,#0
004480  f7fffffe          BL       LCD_WR_DATA
;;;2625   		
;;;2626   		LCD_WR_REG(0xB8);	//设置GPIO配置
004484  20b8              MOVS     r0,#0xb8
004486  f7fffffe          BL       LCD_WR_REG
;;;2627   		LCD_WR_DATA(0x03);	//2个IO口设置成输出
00448a  2003              MOVS     r0,#3
00448c  f7fffffe          BL       LCD_WR_DATA
;;;2628   		LCD_WR_DATA(0x01);	//GPIO使用正常的IO功能 
004490  2001              MOVS     r0,#1
004492  f7fffffe          BL       LCD_WR_DATA
;;;2629   		LCD_WR_REG(0xBA);
004496  20ba              MOVS     r0,#0xba
004498  f7fffffe          BL       LCD_WR_REG
;;;2630   		LCD_WR_DATA(0X01);	//GPIO[1:0]=01,控制LCD方向
00449c  2001              MOVS     r0,#1
00449e  f7fffffe          BL       LCD_WR_DATA
;;;2631   		
;;;2632   		LCD_SSD_BackLightSet(100);//背光设置为最亮
0044a2  2064              MOVS     r0,#0x64
0044a4  f7fffffe          BL       LCD_SSD_BackLightSet
                  |L1.17576|
;;;2633   	}		 
;;;2634   	LCD_Display_Dir(0);		//默认为竖屏
0044a8  2000              MOVS     r0,#0
0044aa  f7fffffe          BL       LCD_Display_Dir
;;;2635   	LCD_LED=1;				//点亮背光
0044ae  2001              MOVS     r0,#1
0044b0  493b              LDR      r1,|L1.17824|
0044b2  6008              STR      r0,[r1,#0]
;;;2636   	LCD_Clear(WHITE);
0044b4  f64f70ff          MOV      r0,#0xffff
0044b8  f7fffffe          BL       LCD_Clear
;;;2637   }  
0044bc  b01f              ADD      sp,sp,#0x7c
0044be  bd00              POP      {pc}
;;;2638   //清屏函数
                          ENDP

                  LCD_Fill PROC
;;;2663   //color:要填充的颜色
;;;2664   void LCD_Fill(u16 sx,u16 sy,u16 ex,u16 ey,u16 color)
0044c0  e92d4ffc          PUSH     {r2-r11,lr}
;;;2665   {          
0044c4  4605              MOV      r5,r0
0044c6  460e              MOV      r6,r1
0044c8  4617              MOV      r7,r2
0044ca  4698              MOV      r8,r3
0044cc  f8dd902c          LDR      r9,[sp,#0x2c]
;;;2666   	u16 i,j;
;;;2667   	u16 xlen=0;
0044d0  2000              MOVS     r0,#0
0044d2  9001              STR      r0,[sp,#4]
;;;2668   	u16 temp;
;;;2669   	if((lcddev.id==0X6804)&&(lcddev.dir==1))	//6804横屏的时候特殊处理  
0044d4  4831              LDR      r0,|L1.17820|
0044d6  8880              LDRH     r0,[r0,#4]  ; lcddev
0044d8  f6460104          MOV      r1,#0x6804
0044dc  4288              CMP      r0,r1
0044de  d129              BNE      |L1.17716|
0044e0  482e              LDR      r0,|L1.17820|
0044e2  7980              LDRB     r0,[r0,#6]  ; lcddev
0044e4  2801              CMP      r0,#1
0044e6  d125              BNE      |L1.17716|
;;;2670   	{
;;;2671   		temp=sx;
0044e8  46ab              MOV      r11,r5
;;;2672   		sx=sy;
0044ea  4635              MOV      r5,r6
;;;2673   		sy=lcddev.width-ex-1;	  
0044ec  482b              LDR      r0,|L1.17820|
0044ee  8800              LDRH     r0,[r0,#0]  ; lcddev
0044f0  1bc0              SUBS     r0,r0,r7
0044f2  1e40              SUBS     r0,r0,#1
0044f4  b286              UXTH     r6,r0
;;;2674   		ex=ey;
0044f6  4647              MOV      r7,r8
;;;2675   		ey=lcddev.width-temp-1;
0044f8  4828              LDR      r0,|L1.17820|
0044fa  8800              LDRH     r0,[r0,#0]  ; lcddev
0044fc  eba0000b          SUB      r0,r0,r11
004500  1e40              SUBS     r0,r0,#1
004502  fa1ff880          UXTH     r8,r0
;;;2676    		lcddev.dir=0;	 
004506  2000              MOVS     r0,#0
004508  4924              LDR      r1,|L1.17820|
00450a  7188              STRB     r0,[r1,#6]
;;;2677    		lcddev.setxcmd=0X2A;
00450c  202a              MOVS     r0,#0x2a
00450e  8148              STRH     r0,[r1,#0xa]
;;;2678   		lcddev.setycmd=0X2B;  	 			
004510  202b              MOVS     r0,#0x2b
004512  8188              STRH     r0,[r1,#0xc]
;;;2679   		LCD_Fill(sx,sy,ex,ey,color);  
004514  4643              MOV      r3,r8
004516  463a              MOV      r2,r7
004518  4631              MOV      r1,r6
00451a  4628              MOV      r0,r5
00451c  f8cd9000          STR      r9,[sp,#0]
004520  f7fffffe          BL       LCD_Fill
;;;2680    		lcddev.dir=1;	 
004524  2001              MOVS     r0,#1
004526  491d              LDR      r1,|L1.17820|
004528  7188              STRB     r0,[r1,#6]
;;;2681     		lcddev.setxcmd=0X2B;
00452a  202b              MOVS     r0,#0x2b
00452c  8148              STRH     r0,[r1,#0xa]
;;;2682   		lcddev.setycmd=0X2A;  	 
00452e  202a              MOVS     r0,#0x2a
004530  8188              STRH     r0,[r1,#0xc]
004532  e01c              B        |L1.17774|
                  |L1.17716|
;;;2683    	}else
;;;2684   	{
;;;2685   		xlen=ex-sx+1;	 
004534  1b78              SUBS     r0,r7,r5
004536  1c40              ADDS     r0,r0,#1
004538  b280              UXTH     r0,r0
00453a  9001              STR      r0,[sp,#4]
;;;2686   		for(i=sy;i<=ey;i++)
00453c  4634              MOV      r4,r6
00453e  e014              B        |L1.17770|
                  |L1.17728|
;;;2687   		{
;;;2688   		 	LCD_SetCursor(sx,i);      				//设置光标位置 
004540  4621              MOV      r1,r4
004542  4628              MOV      r0,r5
004544  f7fffffe          BL       LCD_SetCursor
;;;2689   			LCD_WriteRAM_Prepare();     			//开始写入GRAM	  
004548  f7fffffe          BL       LCD_WriteRAM_Prepare
;;;2690   			for(j=0;j<xlen;j++)LCD->LCD_RAM=color;	//显示颜色 	    
00454c  f04f0a00          MOV      r10,#0
004550  e006              B        |L1.17760|
                  |L1.17746|
004552  4814              LDR      r0,|L1.17828|
004554  f8a09000          STRH     r9,[r0,#0]
004558  f10a0001          ADD      r0,r10,#1
00455c  fa1ffa80          UXTH     r10,r0
                  |L1.17760|
004560  9801              LDR      r0,[sp,#4]
004562  4582              CMP      r10,r0
004564  dbf5              BLT      |L1.17746|
004566  1c60              ADDS     r0,r4,#1              ;2686
004568  b284              UXTH     r4,r0                 ;2686
                  |L1.17770|
00456a  4544              CMP      r4,r8                 ;2686
00456c  dde8              BLE      |L1.17728|
                  |L1.17774|
;;;2691   		}
;;;2692   	}	 
;;;2693   }  
00456e  e8bd8ffc          POP      {r2-r11,pc}
;;;2694   //在指定区域内填充指定颜色块			 
                          ENDP

                  LCD_Color_Fill PROC
;;;2696   //color:要填充的颜色
;;;2697   void LCD_Color_Fill(u16 sx,u16 sy,u16 ex,u16 ey,u16 *color)
004572  e92d4ff8          PUSH     {r3-r11,lr}
;;;2698   {  
004576  4607              MOV      r7,r0
004578  460d              MOV      r5,r1
00457a  4690              MOV      r8,r2
00457c  4699              MOV      r9,r3
00457e  f8ddb028          LDR      r11,[sp,#0x28]
;;;2699   	u16 height,width;
;;;2700   	u16 i,j;
;;;2701   	width=ex-sx+1; 			//得到填充的宽度
004582  eba80007          SUB      r0,r8,r7
004586  1c40              ADDS     r0,r0,#1
004588  fa1ffa80          UXTH     r10,r0
;;;2702   	height=ey-sy+1;			//高度
00458c  eba90005          SUB      r0,r9,r5
004590  1c40              ADDS     r0,r0,#1
004592  b280              UXTH     r0,r0
004594  9000              STR      r0,[sp,#0]
;;;2703    	for(i=0;i<height;i++)
004596  2400              MOVS     r4,#0
004598  e01b              B        |L1.17874|
00459a  0000              DCW      0x0000
                  |L1.17820|
                          DCD      lcddev
                  |L1.17824|
                          DCD      0x42218180
                  |L1.17828|
                          DCD      0x6c000800
                  |L1.17832|
;;;2704   	{
;;;2705    		LCD_SetCursor(sx,sy+i);   	//设置光标位置 
0045a8  1928              ADDS     r0,r5,r4
0045aa  b281              UXTH     r1,r0
0045ac  4638              MOV      r0,r7
0045ae  f7fffffe          BL       LCD_SetCursor
;;;2706   		LCD_WriteRAM_Prepare();     //开始写入GRAM
0045b2  f7fffffe          BL       LCD_WriteRAM_Prepare
;;;2707   		for(j=0;j<width;j++)LCD->LCD_RAM=color[i*width+j];//写入数据 
0045b6  2600              MOVS     r6,#0
0045b8  e007              B        |L1.17866|
                  |L1.17850|
0045ba  fb04600a          MLA      r0,r4,r10,r6
0045be  f83b0010          LDRH     r0,[r11,r0,LSL #1]
0045c2  49f8              LDR      r1,|L1.18852|
0045c4  8008              STRH     r0,[r1,#0]
0045c6  1c70              ADDS     r0,r6,#1
0045c8  b286              UXTH     r6,r0
                  |L1.17866|
0045ca  4556              CMP      r6,r10
0045cc  dbf5              BLT      |L1.17850|
0045ce  1c60              ADDS     r0,r4,#1              ;2703
0045d0  b284              UXTH     r4,r0                 ;2703
                  |L1.17874|
0045d2  9800              LDR      r0,[sp,#0]            ;2703
0045d4  4284              CMP      r4,r0                 ;2703
0045d6  dbe7              BLT      |L1.17832|
;;;2708   	}		  
;;;2709   }  
0045d8  e8bd8ff8          POP      {r3-r11,pc}
;;;2710   //画线
                          ENDP

                  LCD_DrawLine PROC
;;;2712   //x2,y2:终点坐标  
;;;2713   void LCD_DrawLine(u16 x1, u16 y1, u16 x2, u16 y2)
0045dc  e92d4fff          PUSH     {r0-r11,lr}
;;;2714   {
0045e0  b084              SUB      sp,sp,#0x10
0045e2  4681              MOV      r9,r0
0045e4  468a              MOV      r10,r1
;;;2715   	u16 t; 
;;;2716   	int xerr=0,yerr=0,delta_x,delta_y,distance; 
0045e6  2000              MOVS     r0,#0
0045e8  9003              STR      r0,[sp,#0xc]
0045ea  9002              STR      r0,[sp,#8]
;;;2717   	int incx,incy,uRow,uCol; 
;;;2718   	delta_x=x2-x1; //计算坐标增量 
0045ec  9806              LDR      r0,[sp,#0x18]
0045ee  eba00509          SUB      r5,r0,r9
;;;2719   	delta_y=y2-y1; 
0045f2  9807              LDR      r0,[sp,#0x1c]
0045f4  eba0060a          SUB      r6,r0,r10
;;;2720   	uRow=x1; 
0045f8  f8cd9004          STR      r9,[sp,#4]
;;;2721   	uCol=y1; 
0045fc  f8cda000          STR      r10,[sp,#0]
;;;2722   	if(delta_x>0)incx=1; //设置单步方向 
004600  2d00              CMP      r5,#0
004602  dd01              BLE      |L1.17928|
004604  2701              MOVS     r7,#1
004606  e005              B        |L1.17940|
                  |L1.17928|
;;;2723   	else if(delta_x==0)incx=0;//垂直线 
004608  b90d              CBNZ     r5,|L1.17934|
00460a  2700              MOVS     r7,#0
00460c  e002              B        |L1.17940|
                  |L1.17934|
;;;2724   	else {incx=-1;delta_x=-delta_x;} 
00460e  f04f37ff          MOV      r7,#0xffffffff
004612  426d              RSBS     r5,r5,#0
                  |L1.17940|
;;;2725   	if(delta_y>0)incy=1; 
004614  2e00              CMP      r6,#0
004616  dd02              BLE      |L1.17950|
004618  f04f0801          MOV      r8,#1
00461c  e006              B        |L1.17964|
                  |L1.17950|
;;;2726   	else if(delta_y==0)incy=0;//水平线 
00461e  b916              CBNZ     r6,|L1.17958|
004620  f04f0800          MOV      r8,#0
004624  e002              B        |L1.17964|
                  |L1.17958|
;;;2727   	else{incy=-1;delta_y=-delta_y;} 
004626  f04f38ff          MOV      r8,#0xffffffff
00462a  4276              RSBS     r6,r6,#0
                  |L1.17964|
;;;2728   	if( delta_x>delta_y)distance=delta_x; //选取基本增量坐标轴 
00462c  42b5              CMP      r5,r6
00462e  dd01              BLE      |L1.17972|
004630  462c              MOV      r4,r5
004632  e000              B        |L1.17974|
                  |L1.17972|
;;;2729   	else distance=delta_y; 
004634  4634              MOV      r4,r6
                  |L1.17974|
;;;2730   	for(t=0;t<=distance+1;t++ )//画线输出 
004636  f04f0b00          MOV      r11,#0
00463a  e021              B        |L1.18048|
                  |L1.17980|
;;;2731   	{  
;;;2732   		LCD_DrawPoint(uRow,uCol);//画点 
00463c  9a00              LDR      r2,[sp,#0]
00463e  b291              UXTH     r1,r2
004640  9a01              LDR      r2,[sp,#4]
004642  b290              UXTH     r0,r2
004644  f7fffffe          BL       LCD_DrawPoint
;;;2733   		xerr+=delta_x ; 
004648  9803              LDR      r0,[sp,#0xc]
00464a  4428              ADD      r0,r0,r5
00464c  9003              STR      r0,[sp,#0xc]
;;;2734   		yerr+=delta_y ; 
00464e  9802              LDR      r0,[sp,#8]
004650  4430              ADD      r0,r0,r6
004652  9002              STR      r0,[sp,#8]
;;;2735   		if(xerr>distance) 
004654  9803              LDR      r0,[sp,#0xc]
004656  42a0              CMP      r0,r4
004658  dd05              BLE      |L1.18022|
;;;2736   		{ 
;;;2737   			xerr-=distance; 
00465a  9803              LDR      r0,[sp,#0xc]
00465c  1b00              SUBS     r0,r0,r4
00465e  9003              STR      r0,[sp,#0xc]
;;;2738   			uRow+=incx; 
004660  9801              LDR      r0,[sp,#4]
004662  4438              ADD      r0,r0,r7
004664  9001              STR      r0,[sp,#4]
                  |L1.18022|
;;;2739   		} 
;;;2740   		if(yerr>distance) 
004666  9802              LDR      r0,[sp,#8]
004668  42a0              CMP      r0,r4
00466a  dd05              BLE      |L1.18040|
;;;2741   		{ 
;;;2742   			yerr-=distance; 
00466c  9802              LDR      r0,[sp,#8]
00466e  1b00              SUBS     r0,r0,r4
004670  9002              STR      r0,[sp,#8]
;;;2743   			uCol+=incy; 
004672  9800              LDR      r0,[sp,#0]
004674  4440              ADD      r0,r0,r8
004676  9000              STR      r0,[sp,#0]
                  |L1.18040|
004678  f10b0001          ADD      r0,r11,#1             ;2730
00467c  fa1ffb80          UXTH     r11,r0                ;2730
                  |L1.18048|
004680  1c60              ADDS     r0,r4,#1              ;2730
004682  4583              CMP      r11,r0                ;2730
004684  ddda              BLE      |L1.17980|
;;;2744   		} 
;;;2745   	}  
;;;2746   }    
004686  b008              ADD      sp,sp,#0x20
004688  e8bd8ff0          POP      {r4-r11,pc}
;;;2747   //画矩形	  
                          ENDP

                  LCD_DrawRectangle PROC
;;;2748   //(x1,y1),(x2,y2):矩形的对角坐标
;;;2749   void LCD_DrawRectangle(u16 x1, u16 y1, u16 x2, u16 y2)
00468c  b5f0              PUSH     {r4-r7,lr}
;;;2750   {
00468e  4604              MOV      r4,r0
004690  460d              MOV      r5,r1
004692  4616              MOV      r6,r2
004694  461f              MOV      r7,r3
;;;2751   	LCD_DrawLine(x1,y1,x2,y1);
004696  462b              MOV      r3,r5
004698  4632              MOV      r2,r6
00469a  4629              MOV      r1,r5
00469c  4620              MOV      r0,r4
00469e  f7fffffe          BL       LCD_DrawLine
;;;2752   	LCD_DrawLine(x1,y1,x1,y2);
0046a2  463b              MOV      r3,r7
0046a4  4622              MOV      r2,r4
0046a6  4629              MOV      r1,r5
0046a8  4620              MOV      r0,r4
0046aa  f7fffffe          BL       LCD_DrawLine
;;;2753   	LCD_DrawLine(x1,y2,x2,y2);
0046ae  463b              MOV      r3,r7
0046b0  4632              MOV      r2,r6
0046b2  4639              MOV      r1,r7
0046b4  4620              MOV      r0,r4
0046b6  f7fffffe          BL       LCD_DrawLine
;;;2754   	LCD_DrawLine(x2,y1,x2,y2);
0046ba  463b              MOV      r3,r7
0046bc  4632              MOV      r2,r6
0046be  4629              MOV      r1,r5
0046c0  4630              MOV      r0,r6
0046c2  f7fffffe          BL       LCD_DrawLine
;;;2755   }
0046c6  bdf0              POP      {r4-r7,pc}
;;;2756   //在指定位置画一个指定大小的圆
                          ENDP

                  LCD_Draw_Circle PROC
;;;2758   //r    :半径
;;;2759   void LCD_Draw_Circle(u16 x0,u16 y0,u8 r)
0046c8  e92d43f0          PUSH     {r4-r9,lr}
;;;2760   {
0046cc  4606              MOV      r6,r0
0046ce  460f              MOV      r7,r1
0046d0  4690              MOV      r8,r2
;;;2761   	int a,b;
;;;2762   	int di;
;;;2763   	a=0;b=r;	  
0046d2  2400              MOVS     r4,#0
0046d4  4645              MOV      r5,r8
;;;2764   	di=3-(r<<1);             //判断下个点位置的标志
0046d6  2003              MOVS     r0,#3
0046d8  eba00948          SUB      r9,r0,r8,LSL #1
;;;2765   	while(a<=b)
0046dc  e03c              B        |L1.18264|
                  |L1.18142|
;;;2766   	{
;;;2767   		LCD_DrawPoint(x0+a,y0-b);             //5
0046de  1b7a              SUBS     r2,r7,r5
0046e0  b291              UXTH     r1,r2
0046e2  1932              ADDS     r2,r6,r4
0046e4  b290              UXTH     r0,r2
0046e6  f7fffffe          BL       LCD_DrawPoint
;;;2768    		LCD_DrawPoint(x0+b,y0-a);             //0           
0046ea  1b3a              SUBS     r2,r7,r4
0046ec  b291              UXTH     r1,r2
0046ee  1972              ADDS     r2,r6,r5
0046f0  b290              UXTH     r0,r2
0046f2  f7fffffe          BL       LCD_DrawPoint
;;;2769   		LCD_DrawPoint(x0+b,y0+a);             //4               
0046f6  193a              ADDS     r2,r7,r4
0046f8  b291              UXTH     r1,r2
0046fa  1972              ADDS     r2,r6,r5
0046fc  b290              UXTH     r0,r2
0046fe  f7fffffe          BL       LCD_DrawPoint
;;;2770   		LCD_DrawPoint(x0+a,y0+b);             //6 
004702  197a              ADDS     r2,r7,r5
004704  b291              UXTH     r1,r2
004706  1932              ADDS     r2,r6,r4
004708  b290              UXTH     r0,r2
00470a  f7fffffe          BL       LCD_DrawPoint
;;;2771   		LCD_DrawPoint(x0-a,y0+b);             //1       
00470e  197a              ADDS     r2,r7,r5
004710  b291              UXTH     r1,r2
004712  1b32              SUBS     r2,r6,r4
004714  b290              UXTH     r0,r2
004716  f7fffffe          BL       LCD_DrawPoint
;;;2772    		LCD_DrawPoint(x0-b,y0+a);             
00471a  193a              ADDS     r2,r7,r4
00471c  b291              UXTH     r1,r2
00471e  1b72              SUBS     r2,r6,r5
004720  b290              UXTH     r0,r2
004722  f7fffffe          BL       LCD_DrawPoint
;;;2773   		LCD_DrawPoint(x0-a,y0-b);             //2             
004726  1b7a              SUBS     r2,r7,r5
004728  b291              UXTH     r1,r2
00472a  1b32              SUBS     r2,r6,r4
00472c  b290              UXTH     r0,r2
00472e  f7fffffe          BL       LCD_DrawPoint
;;;2774     		LCD_DrawPoint(x0-b,y0-a);             //7     	         
004732  1b3a              SUBS     r2,r7,r4
004734  b291              UXTH     r1,r2
004736  1b72              SUBS     r2,r6,r5
004738  b290              UXTH     r0,r2
00473a  f7fffffe          BL       LCD_DrawPoint
;;;2775   		a++;
00473e  1c64              ADDS     r4,r4,#1
;;;2776   		//使用Bresenham算法画圆     
;;;2777   		if(di<0)di +=4*a+6;	  
004740  f1b90f00          CMP      r9,#0
004744  da03              BGE      |L1.18254|
004746  00a0              LSLS     r0,r4,#2
004748  1d80              ADDS     r0,r0,#6
00474a  4481              ADD      r9,r9,r0
00474c  e004              B        |L1.18264|
                  |L1.18254|
;;;2778   		else
;;;2779   		{
;;;2780   			di+=10+4*(a-b);   
00474e  1b60              SUBS     r0,r4,r5
004750  0080              LSLS     r0,r0,#2
004752  300a              ADDS     r0,r0,#0xa
004754  4481              ADD      r9,r9,r0
;;;2781   			b--;
004756  1e6d              SUBS     r5,r5,#1
                  |L1.18264|
004758  42ac              CMP      r4,r5                 ;2765
00475a  ddc0              BLE      |L1.18142|
;;;2782   		} 						    
;;;2783   	}
;;;2784   } 									  
00475c  e8bd83f0          POP      {r4-r9,pc}
;;;2785   //在指定位置显示一个字符
                          ENDP

                  LCD_ShowChar PROC
;;;2789   //mode:叠加方式(1)还是非叠加方式(0)
;;;2790   void LCD_ShowChar(u16 x,u16 y,u8 num,u8 size,u8 mode)
004760  e92d4ff8          PUSH     {r3-r11,lr}
;;;2791   {  							  
004764  4680              MOV      r8,r0
004766  460e              MOV      r6,r1
004768  4617              MOV      r7,r2
00476a  461c              MOV      r4,r3
;;;2792       u8 temp,t1,t;
;;;2793   	u16 y0=y;
00476c  46b3              MOV      r11,r6
;;;2794   	u8 csize=(size/8+((size%8)?1:0))*(size/2);		//得到字体一个字符对应点阵集所占的字节数	
00476e  4620              MOV      r0,r4
004770  17e3              ASRS     r3,r4,#31
004772  eb047353          ADD      r3,r4,r3,LSR #29
004776  10db              ASRS     r3,r3,#3
004778  4621              MOV      r1,r4
00477a  ea4f7ce4          ASR      r12,r4,#31
00477e  eb047c5c          ADD      r12,r4,r12,LSR #29
004782  ea4f0cec          ASR      r12,r12,#3
004786  eba40ccc          SUB      r12,r4,r12,LSL #3
00478a  f1bc0f00          CMP      r12,#0
00478e  d002              BEQ      |L1.18326|
004790  f04f0c01          MOV      r12,#1
004794  e001              B        |L1.18330|
                  |L1.18326|
004796  f04f0c00          MOV      r12,#0
                  |L1.18330|
00479a  4463              ADD      r3,r3,r12
00479c  4622              MOV      r2,r4
00479e  eb047cd2          ADD      r12,r4,r2,LSR #31
0047a2  ea4f0c6c          ASR      r12,r12,#1
0047a6  fb03f30c          MUL      r3,r3,r12
0047aa  b2db              UXTB     r3,r3
0047ac  9300              STR      r3,[sp,#0]
;;;2795    	num=num-' ';//得到偏移后的值（ASCII字库是从空格开始取模，所以-' '就是对应字符的字库）
0047ae  f1a70020          SUB      r0,r7,#0x20
0047b2  b2c7              UXTB     r7,r0
;;;2796   	for(t=0;t<csize;t++)
0047b4  2500              MOVS     r5,#0
0047b6  e056              B        |L1.18534|
                  |L1.18360|
;;;2797   	{   
;;;2798   		if(size==12)temp=asc2_1206[num][t]; 	 	//调用1206字体
0047b8  2c0c              CMP      r4,#0xc
0047ba  d107              BNE      |L1.18380|
0047bc  eb070047          ADD      r0,r7,r7,LSL #1
0047c0  4979              LDR      r1,|L1.18856|
0047c2  eb010080          ADD      r0,r1,r0,LSL #2
0047c6  f8109005          LDRB     r9,[r0,r5]
0047ca  e013              B        |L1.18420|
                  |L1.18380|
;;;2799   		else if(size==16)temp=asc2_1608[num][t];	//调用1608字体
0047cc  2c10              CMP      r4,#0x10
0047ce  d105              BNE      |L1.18396|
0047d0  4876              LDR      r0,|L1.18860|
0047d2  eb001007          ADD      r0,r0,r7,LSL #4
0047d6  f8109005          LDRB     r9,[r0,r5]
0047da  e00b              B        |L1.18420|
                  |L1.18396|
;;;2800   		else if(size==24)temp=asc2_2412[num][t];	//调用2412字体
0047dc  2c18              CMP      r4,#0x18
0047de  d107              BNE      |L1.18416|
0047e0  eb0700c7          ADD      r0,r7,r7,LSL #3
0047e4  4972              LDR      r1,|L1.18864|
0047e6  eb010080          ADD      r0,r1,r0,LSL #2
0047ea  f8109005          LDRB     r9,[r0,r5]
0047ee  e001              B        |L1.18420|
                  |L1.18416|
;;;2801   		else return;								//没有的字库
;;;2802   		for(t1=0;t1<8;t1++)
;;;2803   		{			    
;;;2804   			if(temp&0x80)LCD_Fast_DrawPoint(x,y,POINT_COLOR);
;;;2805   			else if(mode==0)LCD_Fast_DrawPoint(x,y,BACK_COLOR);
;;;2806   			temp<<=1;
;;;2807   			y++;
;;;2808   			if(y>=lcddev.height)return;		//超区域了
;;;2809   			if((y-y0)==size)
;;;2810   			{
;;;2811   				y=y0;
;;;2812   				x++;
;;;2813   				if(x>=lcddev.width)return;	//超区域了
;;;2814   				break;
;;;2815   			}
;;;2816   		}  	 
;;;2817   	}  	    	   	 	  
;;;2818   }   
0047f0  e8bd8ff8          POP      {r3-r11,pc}
                  |L1.18420|
0047f4  f04f0a00          MOV      r10,#0                ;2802
0047f8  e02f              B        |L1.18522|
                  |L1.18426|
0047fa  f0090080          AND      r0,r9,#0x80           ;2804
0047fe  b130              CBZ      r0,|L1.18446|
004800  486c              LDR      r0,|L1.18868|
004802  8802              LDRH     r2,[r0,#0]            ;2804  ; POINT_COLOR
004804  4631              MOV      r1,r6                 ;2804
004806  4640              MOV      r0,r8                 ;2804
004808  f7fffffe          BL       LCD_Fast_DrawPoint
00480c  e007              B        |L1.18462|
                  |L1.18446|
00480e  980a              LDR      r0,[sp,#0x28]         ;2805
004810  b928              CBNZ     r0,|L1.18462|
004812  4869              LDR      r0,|L1.18872|
004814  8802              LDRH     r2,[r0,#0]            ;2805  ; BACK_COLOR
004816  4631              MOV      r1,r6                 ;2805
004818  4640              MOV      r0,r8                 ;2805
00481a  f7fffffe          BL       LCD_Fast_DrawPoint
                  |L1.18462|
00481e  ea4f6049          LSL      r0,r9,#25             ;2806
004822  ea4f6910          LSR      r9,r0,#24             ;2806
004826  1c70              ADDS     r0,r6,#1              ;2807
004828  b286              UXTH     r6,r0                 ;2807
00482a  4864              LDR      r0,|L1.18876|
00482c  8840              LDRH     r0,[r0,#2]            ;2808  ; lcddev
00482e  42b0              CMP      r0,r6                 ;2808
004830  dc00              BGT      |L1.18484|
004832  e7dd              B        |L1.18416|
                  |L1.18484|
004834  eba6000b          SUB      r0,r6,r11             ;2809
004838  42a0              CMP      r0,r4                 ;2809
00483a  d10a              BNE      |L1.18514|
00483c  465e              MOV      r6,r11                ;2811
00483e  f1080001          ADD      r0,r8,#1              ;2812
004842  fa1ff880          UXTH     r8,r0                 ;2812
004846  485d              LDR      r0,|L1.18876|
004848  8800              LDRH     r0,[r0,#0]            ;2813  ; lcddev
00484a  4540              CMP      r0,r8                 ;2813
00484c  dc00              BGT      |L1.18512|
00484e  e7cf              B        |L1.18416|
                  |L1.18512|
004850  e006              B        |L1.18528|
                  |L1.18514|
004852  f10a0001          ADD      r0,r10,#1             ;2802
004856  f0000aff          AND      r10,r0,#0xff          ;2802
                  |L1.18522|
00485a  f1ba0f08          CMP      r10,#8                ;2802
00485e  dbcc              BLT      |L1.18426|
                  |L1.18528|
004860  bf00              NOP                            ;2814
004862  1c68              ADDS     r0,r5,#1              ;2796
004864  b2c5              UXTB     r5,r0                 ;2796
                  |L1.18534|
004866  9800              LDR      r0,[sp,#0]            ;2796
004868  4285              CMP      r5,r0                 ;2796
00486a  dba5              BLT      |L1.18360|
00486c  bf00              NOP      
00486e  e7bf              B        |L1.18416|
;;;2819   //m^n函数
                          ENDP

                  LCD_Pow PROC
;;;2820   //返回值:m^n次方.
;;;2821   u32 LCD_Pow(u8 m,u8 n)
004870  b510              PUSH     {r4,lr}
;;;2822   {
004872  4602              MOV      r2,r0
;;;2823   	u32 result=1;	 
004874  2001              MOVS     r0,#1
;;;2824   	while(n--)result*=m;    
004876  e000              B        |L1.18554|
                  |L1.18552|
004878  4350              MULS     r0,r2,r0
                  |L1.18554|
00487a  000b              MOVS     r3,r1
00487c  f1a10401          SUB      r4,r1,#1
004880  b2e1              UXTB     r1,r4
004882  d1f9              BNE      |L1.18552|
;;;2825   	return result;
;;;2826   }			 
004884  bd10              POP      {r4,pc}
;;;2827   //显示数字,高位为0,则不显示
                          ENDP

                  LCD_ShowNum PROC
;;;2832   //num:数值(0~4294967295);	 
;;;2833   void LCD_ShowNum(u16 x,u16 y,u32 num,u8 len,u8 size)
004886  e92d4fff          PUSH     {r0-r11,lr}
;;;2834   {         	
00488a  b081              SUB      sp,sp,#4
00488c  4607              MOV      r7,r0
00488e  4691              MOV      r9,r2
004890  461e              MOV      r6,r3
004892  9d0e              LDR      r5,[sp,#0x38]
;;;2835   	u8 t,temp;
;;;2836   	u8 enshow=0;						   
004894  f04f0a00          MOV      r10,#0
;;;2837   	for(t=0;t<len;t++)
004898  2400              MOVS     r4,#0
00489a  e039              B        |L1.18704|
                  |L1.18588|
;;;2838   	{
;;;2839   		temp=(num/LCD_Pow(10,len-t-1))%10;
00489c  1b30              SUBS     r0,r6,r4
00489e  1e40              SUBS     r0,r0,#1
0048a0  b2c1              UXTB     r1,r0
0048a2  200a              MOVS     r0,#0xa
0048a4  f7fffffe          BL       LCD_Pow
0048a8  fbb9f0f0          UDIV     r0,r9,r0
0048ac  210a              MOVS     r1,#0xa
0048ae  fbb0f2f1          UDIV     r2,r0,r1
0048b2  fb010812          MLS      r8,r1,r2,r0
;;;2840   		if(enshow==0&&t<(len-1))
0048b6  f1ba0f00          CMP      r10,#0
0048ba  d116              BNE      |L1.18666|
0048bc  1e70              SUBS     r0,r6,#1
0048be  42a0              CMP      r0,r4
0048c0  dd13              BLE      |L1.18666|
;;;2841   		{
;;;2842   			if(temp==0)
0048c2  f1b80f00          CMP      r8,#0
0048c6  d10e              BNE      |L1.18662|
;;;2843   			{
;;;2844   				LCD_ShowChar(x+(size/2)*t,y,' ',size,0);
0048c8  2000              MOVS     r0,#0
0048ca  46ab              MOV      r11,r5
0048cc  eb0571db          ADD      r1,r5,r11,LSR #31
0048d0  1049              ASRS     r1,r1,#1
0048d2  fb017104          MLA      r1,r1,r4,r7
0048d6  9000              STR      r0,[sp,#0]
0048d8  b288              UXTH     r0,r1
0048da  462b              MOV      r3,r5
0048dc  2220              MOVS     r2,#0x20
0048de  9902              LDR      r1,[sp,#8]
0048e0  f7fffffe          BL       LCD_ShowChar
;;;2845   				continue;
0048e4  e012              B        |L1.18700|
                  |L1.18662|
;;;2846   			}else enshow=1; 
0048e6  f04f0a01          MOV      r10,#1
                  |L1.18666|
;;;2847   		 	 
;;;2848   		}
;;;2849   	 	LCD_ShowChar(x+(size/2)*t,y,temp+'0',size,0); 
0048ea  2000              MOVS     r0,#0
0048ec  46ab              MOV      r11,r5
0048ee  eb0571db          ADD      r1,r5,r11,LSR #31
0048f2  1049              ASRS     r1,r1,#1
0048f4  fb017104          MLA      r1,r1,r4,r7
0048f8  9000              STR      r0,[sp,#0]
0048fa  b288              UXTH     r0,r1
0048fc  f1080130          ADD      r1,r8,#0x30
004900  b2ca              UXTB     r2,r1
004902  462b              MOV      r3,r5
004904  9902              LDR      r1,[sp,#8]
004906  f7fffffe          BL       LCD_ShowChar
00490a  bf00              NOP                            ;2845
                  |L1.18700|
00490c  1c60              ADDS     r0,r4,#1              ;2837
00490e  b2c4              UXTB     r4,r0                 ;2837
                  |L1.18704|
004910  42b4              CMP      r4,r6                 ;2837
004912  dbc3              BLT      |L1.18588|
;;;2850   	}
;;;2851   } 
004914  b005              ADD      sp,sp,#0x14
004916  e8bd8ff0          POP      {r4-r11,pc}
;;;2852   //显示数字,高位为0,还是显示
                          ENDP

                  LCD_ShowxNum PROC
;;;2860   //[0]:0,非叠加显示;1,叠加显示.
;;;2861   void LCD_ShowxNum(u16 x,u16 y,u32 num,u8 len,u8 size,u8 mode)
00491a  e92d4fff          PUSH     {r0-r11,lr}
;;;2862   {  
00491e  b082              SUB      sp,sp,#8
004920  4606              MOV      r6,r0
004922  4692              MOV      r10,r2
004924  461f              MOV      r7,r3
004926  e9dd480f          LDRD     r4,r8,[sp,#0x3c]
;;;2863   	u8 t,temp;
;;;2864   	u8 enshow=0;						   
00492a  2000              MOVS     r0,#0
00492c  9001              STR      r0,[sp,#4]
;;;2865   	for(t=0;t<len;t++)
00492e  2500              MOVS     r5,#0
004930  e05c              B        |L1.18924|
                  |L1.18738|
;;;2866   	{
;;;2867   		temp=(num/LCD_Pow(10,len-t-1))%10;
004932  1b78              SUBS     r0,r7,r5
004934  1e40              SUBS     r0,r0,#1
004936  b2c1              UXTB     r1,r0
004938  200a              MOVS     r0,#0xa
00493a  f7fffffe          BL       LCD_Pow
00493e  fbbaf0f0          UDIV     r0,r10,r0
004942  210a              MOVS     r1,#0xa
004944  fbb0f2f1          UDIV     r2,r0,r1
004948  fb010912          MLS      r9,r1,r2,r0
;;;2868   		if(enshow==0&&t<(len-1))
00494c  9801              LDR      r0,[sp,#4]
00494e  bb40              CBNZ     r0,|L1.18850|
004950  1e78              SUBS     r0,r7,#1
004952  42a8              CMP      r0,r5
004954  dd36              BLE      |L1.18884|
;;;2869   		{
;;;2870   			if(temp==0)
004956  f1b90f00          CMP      r9,#0
00495a  d131              BNE      |L1.18880|
;;;2871   			{
;;;2872   				if(mode&0X80)LCD_ShowChar(x+(size/2)*t,y,'0',size,mode&0X01);  
00495c  f0080080          AND      r0,r8,#0x80
004960  b178              CBZ      r0,|L1.18818|
004962  f0080001          AND      r0,r8,#1
004966  46a3              MOV      r11,r4
004968  eb0471db          ADD      r1,r4,r11,LSR #31
00496c  1049              ASRS     r1,r1,#1
00496e  fb016105          MLA      r1,r1,r5,r6
004972  9000              STR      r0,[sp,#0]
004974  b288              UXTH     r0,r1
004976  4623              MOV      r3,r4
004978  2230              MOVS     r2,#0x30
00497a  9903              LDR      r1,[sp,#0xc]
00497c  f7fffffe          BL       LCD_ShowChar
004980  e00e              B        |L1.18848|
                  |L1.18818|
;;;2873   				else LCD_ShowChar(x+(size/2)*t,y,' ',size,mode&0X01);  
004982  f0080001          AND      r0,r8,#1
004986  46a3              MOV      r11,r4
004988  eb0471db          ADD      r1,r4,r11,LSR #31
00498c  1049              ASRS     r1,r1,#1
00498e  fb016105          MLA      r1,r1,r5,r6
004992  9000              STR      r0,[sp,#0]
004994  b288              UXTH     r0,r1
004996  4623              MOV      r3,r4
004998  2220              MOVS     r2,#0x20
00499a  9903              LDR      r1,[sp,#0xc]
00499c  f7fffffe          BL       LCD_ShowChar
                  |L1.18848|
;;;2874    				continue;
0049a0  e022              B        |L1.18920|
                  |L1.18850|
0049a2  e00f              B        |L1.18884|
                  |L1.18852|
                          DCD      0x6c000800
                  |L1.18856|
                          DCD      asc2_1206
                  |L1.18860|
                          DCD      asc2_1608
                  |L1.18864|
                          DCD      asc2_2412
                  |L1.18868|
                          DCD      POINT_COLOR
                  |L1.18872|
                          DCD      BACK_COLOR
                  |L1.18876|
                          DCD      lcddev
                  |L1.18880|
;;;2875   			}else enshow=1; 
0049c0  2001              MOVS     r0,#1
0049c2  9001              STR      r0,[sp,#4]
                  |L1.18884|
;;;2876   		 	 
;;;2877   		}
;;;2878   	 	LCD_ShowChar(x+(size/2)*t,y,temp+'0',size,mode&0X01); 
0049c4  f0080001          AND      r0,r8,#1
0049c8  46a3              MOV      r11,r4
0049ca  eb0471db          ADD      r1,r4,r11,LSR #31
0049ce  1049              ASRS     r1,r1,#1
0049d0  fb016105          MLA      r1,r1,r5,r6
0049d4  9000              STR      r0,[sp,#0]
0049d6  b288              UXTH     r0,r1
0049d8  f1090130          ADD      r1,r9,#0x30
0049dc  b2ca              UXTB     r2,r1
0049de  4623              MOV      r3,r4
0049e0  9903              LDR      r1,[sp,#0xc]
0049e2  f7fffffe          BL       LCD_ShowChar
0049e6  bf00              NOP                            ;2874
                  |L1.18920|
0049e8  1c68              ADDS     r0,r5,#1              ;2865
0049ea  b2c5              UXTB     r5,r0                 ;2865
                  |L1.18924|
0049ec  42bd              CMP      r5,r7                 ;2865
0049ee  dba0              BLT      |L1.18738|
;;;2879   	}
;;;2880   } 
0049f0  b006              ADD      sp,sp,#0x18
0049f2  e8bd8ff0          POP      {r4-r11,pc}
;;;2881   //显示字符串
                          ENDP

                  LCD_ShowString PROC
;;;2885   //*p:字符串起始地址		  
;;;2886   void LCD_ShowString(u16 x,u16 y,u16 width,u16 height,u8 size,u8 *p)
0049f6  e92d47f8          PUSH     {r3-r10,lr}
;;;2887   {         
0049fa  4604              MOV      r4,r0
0049fc  460d              MOV      r5,r1
0049fe  4690              MOV      r8,r2
004a00  4699              MOV      r9,r3
004a02  e9dd6709          LDRD     r6,r7,[sp,#0x24]
;;;2888   	u8 x0=x;
004a06  f0040aff          AND      r10,r4,#0xff
;;;2889   	width+=x;
004a0a  eb080004          ADD      r0,r8,r4
004a0e  fa1ff880          UXTH     r8,r0
;;;2890   	height+=y;
004a12  eb090005          ADD      r0,r9,r5
004a16  fa1ff980          UXTH     r9,r0
;;;2891       while((*p<='~')&&(*p>=' '))//判断是不是非法字符!
004a1a  e016              B        |L1.19018|
                  |L1.18972|
;;;2892       {       
;;;2893           if(x>=width){x=x0;y+=size;}
004a1c  4544              CMP      r4,r8
004a1e  db02              BLT      |L1.18982|
004a20  4654              MOV      r4,r10
004a22  19a8              ADDS     r0,r5,r6
004a24  b285              UXTH     r5,r0
                  |L1.18982|
;;;2894           if(y>=height)break;//退出
004a26  454d              CMP      r5,r9
004a28  db00              BLT      |L1.18988|
004a2a  e014              B        |L1.19030|
                  |L1.18988|
;;;2895           LCD_ShowChar(x,y,*p,size,0);
004a2c  2000              MOVS     r0,#0
004a2e  9000              STR      r0,[sp,#0]
004a30  783a              LDRB     r2,[r7,#0]
004a32  4633              MOV      r3,r6
004a34  4629              MOV      r1,r5
004a36  4620              MOV      r0,r4
004a38  f7fffffe          BL       LCD_ShowChar
;;;2896           x+=size/2;
004a3c  4630              MOV      r0,r6
004a3e  eb0671d0          ADD      r1,r6,r0,LSR #31
004a42  eb040161          ADD      r1,r4,r1,ASR #1
004a46  b28c              UXTH     r4,r1
;;;2897           p++;
004a48  1c7f              ADDS     r7,r7,#1
                  |L1.19018|
004a4a  7838              LDRB     r0,[r7,#0]            ;2891
004a4c  287e              CMP      r0,#0x7e              ;2891
004a4e  dc02              BGT      |L1.19030|
004a50  7838              LDRB     r0,[r7,#0]            ;2891
004a52  2820              CMP      r0,#0x20              ;2891
004a54  dae2              BGE      |L1.18972|
                  |L1.19030|
004a56  bf00              NOP                            ;2894
;;;2898       }  
;;;2899   }
004a58  e8bd87f8          POP      {r3-r10,pc}
;;;2900   
                          ENDP


                          AREA ||.bss||, DATA, NOINIT, ALIGN=1

                  lcddev
                          %        14

                          AREA ||.constdata||, DATA, READONLY, ALIGN=0

                  asc2_1206
000000  00000000          DCB      0x00,0x00,0x00,0x00
000004  00000000          DCB      0x00,0x00,0x00,0x00
000008  00000000          DCB      0x00,0x00,0x00,0x00
00000c  00000000          DCB      0x00,0x00,0x00,0x00
000010  3f400000          DCB      0x3f,0x40,0x00,0x00
000014  00000000          DCB      0x00,0x00,0x00,0x00
000018  00003000          DCB      0x00,0x00,0x30,0x00
00001c  40003000          DCB      0x40,0x00,0x30,0x00
000020  40000000          DCB      0x40,0x00,0x00,0x00
000024  09000bc0          DCB      0x09,0x00,0x0b,0xc0
000028  3d000bc0          DCB      0x3d,0x00,0x0b,0xc0
00002c  3d000900          DCB      0x3d,0x00,0x09,0x00
000030  18c02440          DCB      0x18,0xc0,0x24,0x40
000034  7fe02240          DCB      0x7f,0xe0,0x22,0x40
000038  31800000          DCB      0x31,0x80,0x00,0x00
00003c  180024c0          DCB      0x18,0x00,0x24,0xc0
000040  1b000d80          DCB      0x1b,0x00,0x0d,0x80
000044  32400180          DCB      0x32,0x40,0x01,0x80
000048  03801c40          DCB      0x03,0x80,0x1c,0x40
00004c  27401c80          DCB      0x27,0x40,0x1c,0x80
000050  07400040          DCB      0x07,0x40,0x00,0x40
000054  10006000          DCB      0x10,0x00,0x60,0x00
000058  00000000          DCB      0x00,0x00,0x00,0x00
00005c  00000000          DCB      0x00,0x00,0x00,0x00
000060  00000000          DCB      0x00,0x00,0x00,0x00
000064  00001f80          DCB      0x00,0x00,0x1f,0x80
000068  20404020          DCB      0x20,0x40,0x40,0x20
00006c  00004020          DCB      0x00,0x00,0x40,0x20
000070  20401f80          DCB      0x20,0x40,0x1f,0x80
000074  00000000          DCB      0x00,0x00,0x00,0x00
000078  09000600          DCB      0x09,0x00,0x06,0x00
00007c  1f800600          DCB      0x1f,0x80,0x06,0x00
000080  09000000          DCB      0x09,0x00,0x00,0x00
000084  04000400          DCB      0x04,0x00,0x04,0x00
000088  3f800400          DCB      0x3f,0x80,0x04,0x00
00008c  04000000          DCB      0x04,0x00,0x00,0x00
000090  00100060          DCB      0x00,0x10,0x00,0x60
000094  00000000          DCB      0x00,0x00,0x00,0x00
000098  00000000          DCB      0x00,0x00,0x00,0x00
00009c  04000400          DCB      0x04,0x00,0x04,0x00
0000a0  04000400          DCB      0x04,0x00,0x04,0x00
0000a4  04000000          DCB      0x04,0x00,0x00,0x00
0000a8  00000040          DCB      0x00,0x00,0x00,0x40
0000ac  00000000          DCB      0x00,0x00,0x00,0x00
0000b0  00000000          DCB      0x00,0x00,0x00,0x00
0000b4  002001c0          DCB      0x00,0x20,0x01,0xc0
0000b8  06003800          DCB      0x06,0x00,0x38,0x00
0000bc  40000000          DCB      0x40,0x00,0x00,0x00
0000c0  1f802040          DCB      0x1f,0x80,0x20,0x40
0000c4  20402040          DCB      0x20,0x40,0x20,0x40
0000c8  1f800000          DCB      0x1f,0x80,0x00,0x00
0000cc  00001040          DCB      0x00,0x00,0x10,0x40
0000d0  3fc00040          DCB      0x3f,0xc0,0x00,0x40
0000d4  00000000          DCB      0x00,0x00,0x00,0x00
0000d8  18c02140          DCB      0x18,0xc0,0x21,0x40
0000dc  22402440          DCB      0x22,0x40,0x24,0x40
0000e0  18400000          DCB      0x18,0x40,0x00,0x00
0000e4  10802040          DCB      0x10,0x80,0x20,0x40
0000e8  24402440          DCB      0x24,0x40,0x24,0x40
0000ec  1b800000          DCB      0x1b,0x80,0x00,0x00
0000f0  02000d00          DCB      0x02,0x00,0x0d,0x00
0000f4  11003fc0          DCB      0x11,0x00,0x3f,0xc0
0000f8  01400000          DCB      0x01,0x40,0x00,0x00
0000fc  3c802440          DCB      0x3c,0x80,0x24,0x40
000100  24402440          DCB      0x24,0x40,0x24,0x40
000104  23800000          DCB      0x23,0x80,0x00,0x00
000108  1f802440          DCB      0x1f,0x80,0x24,0x40
00010c  24403440          DCB      0x24,0x40,0x34,0x40
000110  03800000          DCB      0x03,0x80,0x00,0x00
000114  30002000          DCB      0x30,0x00,0x20,0x00
000118  27c03800          DCB      0x27,0xc0,0x38,0x00
00011c  20000000          DCB      0x20,0x00,0x00,0x00
000120  1b802440          DCB      0x1b,0x80,0x24,0x40
000124  24402440          DCB      0x24,0x40,0x24,0x40
000128  1b800000          DCB      0x1b,0x80,0x00,0x00
00012c  1c0022c0          DCB      0x1c,0x00,0x22,0xc0
000130  22402240          DCB      0x22,0x40,0x22,0x40
000134  1f800000          DCB      0x1f,0x80,0x00,0x00
000138  00000000          DCB      0x00,0x00,0x00,0x00
00013c  08400000          DCB      0x08,0x40,0x00,0x00
000140  00000000          DCB      0x00,0x00,0x00,0x00
000144  00000000          DCB      0x00,0x00,0x00,0x00
000148  04600000          DCB      0x04,0x60,0x00,0x00
00014c  00000000          DCB      0x00,0x00,0x00,0x00
000150  00000400          DCB      0x00,0x00,0x04,0x00
000154  0a001100          DCB      0x0a,0x00,0x11,0x00
000158  20804040          DCB      0x20,0x80,0x40,0x40
00015c  09000900          DCB      0x09,0x00,0x09,0x00
000160  09000900          DCB      0x09,0x00,0x09,0x00
000164  09000000          DCB      0x09,0x00,0x00,0x00
000168  00004040          DCB      0x00,0x00,0x40,0x40
00016c  20801100          DCB      0x20,0x80,0x11,0x00
000170  0a000400          DCB      0x0a,0x00,0x04,0x00
000174  18002000          DCB      0x18,0x00,0x20,0x00
000178  23402400          DCB      0x23,0x40,0x24,0x00
00017c  18000000          DCB      0x18,0x00,0x00,0x00
000180  1f802040          DCB      0x1f,0x80,0x20,0x40
000184  27402940          DCB      0x27,0x40,0x29,0x40
000188  1f400000          DCB      0x1f,0x40,0x00,0x00
00018c  004007c0          DCB      0x00,0x40,0x07,0xc0
000190  39000f00          DCB      0x39,0x00,0x0f,0x00
000194  01c00040          DCB      0x01,0xc0,0x00,0x40
000198  20403fc0          DCB      0x20,0x40,0x3f,0xc0
00019c  24402440          DCB      0x24,0x40,0x24,0x40
0001a0  1b800000          DCB      0x1b,0x80,0x00,0x00
0001a4  1f802040          DCB      0x1f,0x80,0x20,0x40
0001a8  20402040          DCB      0x20,0x40,0x20,0x40
0001ac  30800000          DCB      0x30,0x80,0x00,0x00
0001b0  20403fc0          DCB      0x20,0x40,0x3f,0xc0
0001b4  20402040          DCB      0x20,0x40,0x20,0x40
0001b8  1f800000          DCB      0x1f,0x80,0x00,0x00
0001bc  20403fc0          DCB      0x20,0x40,0x3f,0xc0
0001c0  24402e40          DCB      0x24,0x40,0x2e,0x40
0001c4  30c00000          DCB      0x30,0xc0,0x00,0x00
0001c8  20403fc0          DCB      0x20,0x40,0x3f,0xc0
0001cc  24402e00          DCB      0x24,0x40,0x2e,0x00
0001d0  30000000          DCB      0x30,0x00,0x00,0x00
0001d4  0f001080          DCB      0x0f,0x00,0x10,0x80
0001d8  20402240          DCB      0x20,0x40,0x22,0x40
0001dc  33800200          DCB      0x33,0x80,0x02,0x00
0001e0  20403fc0          DCB      0x20,0x40,0x3f,0xc0
0001e4  04000400          DCB      0x04,0x00,0x04,0x00
0001e8  3fc02040          DCB      0x3f,0xc0,0x20,0x40
0001ec  20402040          DCB      0x20,0x40,0x20,0x40
0001f0  3fc02040          DCB      0x3f,0xc0,0x20,0x40
0001f4  20400000          DCB      0x20,0x40,0x00,0x00
0001f8  00602020          DCB      0x00,0x60,0x20,0x20
0001fc  20203fc0          DCB      0x20,0x20,0x3f,0xc0
000200  20002000          DCB      0x20,0x00,0x20,0x00
000204  20403fc0          DCB      0x20,0x40,0x3f,0xc0
000208  24400b00          DCB      0x24,0x40,0x0b,0x00
00020c  30c02040          DCB      0x30,0xc0,0x20,0x40
000210  20403fc0          DCB      0x20,0x40,0x3f,0xc0
000214  20400040          DCB      0x20,0x40,0x00,0x40
000218  004000c0          DCB      0x00,0x40,0x00,0xc0
00021c  3fc03c00          DCB      0x3f,0xc0,0x3c,0x00
000220  03c03c00          DCB      0x03,0xc0,0x3c,0x00
000224  3fc00000          DCB      0x3f,0xc0,0x00,0x00
000228  20403fc0          DCB      0x20,0x40,0x3f,0xc0
00022c  0c402300          DCB      0x0c,0x40,0x23,0x00
000230  3fc02000          DCB      0x3f,0xc0,0x20,0x00
000234  1f802040          DCB      0x1f,0x80,0x20,0x40
000238  20402040          DCB      0x20,0x40,0x20,0x40
00023c  1f800000          DCB      0x1f,0x80,0x00,0x00
000240  20403fc0          DCB      0x20,0x40,0x3f,0xc0
000244  24402400          DCB      0x24,0x40,0x24,0x00
000248  18000000          DCB      0x18,0x00,0x00,0x00
00024c  1f802140          DCB      0x1f,0x80,0x21,0x40
000250  214020e0          DCB      0x21,0x40,0x20,0xe0
000254  1fa00000          DCB      0x1f,0xa0,0x00,0x00
000258  20403fc0          DCB      0x20,0x40,0x3f,0xc0
00025c  24402600          DCB      0x24,0x40,0x26,0x00
000260  19c00040          DCB      0x19,0xc0,0x00,0x40
000264  18c02440          DCB      0x18,0xc0,0x24,0x40
000268  24402240          DCB      0x24,0x40,0x22,0x40
00026c  31800000          DCB      0x31,0x80,0x00,0x00
000270  30002040          DCB      0x30,0x00,0x20,0x40
000274  3fc02040          DCB      0x3f,0xc0,0x20,0x40
000278  30000000          DCB      0x30,0x00,0x00,0x00
00027c  20003f80          DCB      0x20,0x00,0x3f,0x80
000280  00400040          DCB      0x00,0x40,0x00,0x40
000284  3f802000          DCB      0x3f,0x80,0x20,0x00
000288  20003e00          DCB      0x20,0x00,0x3e,0x00
00028c  01c00700          DCB      0x01,0xc0,0x07,0x00
000290  38002000          DCB      0x38,0x00,0x20,0x00
000294  380007c0          DCB      0x38,0x00,0x07,0xc0
000298  3c0007c0          DCB      0x3c,0x00,0x07,0xc0
00029c  38000000          DCB      0x38,0x00,0x00,0x00
0002a0  204039c0          DCB      0x20,0x40,0x39,0xc0
0002a4  060039c0          DCB      0x06,0x00,0x39,0xc0
0002a8  20400000          DCB      0x20,0x40,0x00,0x00
0002ac  20003840          DCB      0x20,0x00,0x38,0x40
0002b0  07c03840          DCB      0x07,0xc0,0x38,0x40
0002b4  20000000          DCB      0x20,0x00,0x00,0x00
0002b8  304021c0          DCB      0x30,0x40,0x21,0xc0
0002bc  26403840          DCB      0x26,0x40,0x38,0x40
0002c0  20c00000          DCB      0x20,0xc0,0x00,0x00
0002c4  00000000          DCB      0x00,0x00,0x00,0x00
0002c8  7fe04020          DCB      0x7f,0xe0,0x40,0x20
0002cc  40200000          DCB      0x40,0x20,0x00,0x00
0002d0  00007000          DCB      0x00,0x00,0x70,0x00
0002d4  0c000380          DCB      0x0c,0x00,0x03,0x80
0002d8  00400000          DCB      0x00,0x40,0x00,0x00
0002dc  00004020          DCB      0x00,0x00,0x40,0x20
0002e0  40207fe0          DCB      0x40,0x20,0x7f,0xe0
0002e4  00000000          DCB      0x00,0x00,0x00,0x00
0002e8  00002000          DCB      0x00,0x00,0x20,0x00
0002ec  40002000          DCB      0x40,0x00,0x20,0x00
0002f0  00000000          DCB      0x00,0x00,0x00,0x00
0002f4  00100010          DCB      0x00,0x10,0x00,0x10
0002f8  00100010          DCB      0x00,0x10,0x00,0x10
0002fc  00100010          DCB      0x00,0x10,0x00,0x10
000300  00000000          DCB      0x00,0x00,0x00,0x00
000304  40000000          DCB      0x40,0x00,0x00,0x00
000308  00000000          DCB      0x00,0x00,0x00,0x00
00030c  00000280          DCB      0x00,0x00,0x02,0x80
000310  05400540          DCB      0x05,0x40,0x05,0x40
000314  03c00040          DCB      0x03,0xc0,0x00,0x40
000318  20003fc0          DCB      0x20,0x00,0x3f,0xc0
00031c  04400440          DCB      0x04,0x40,0x04,0x40
000320  03800000          DCB      0x03,0x80,0x00,0x00
000324  00000380          DCB      0x00,0x00,0x03,0x80
000328  04400440          DCB      0x04,0x40,0x04,0x40
00032c  06400000          DCB      0x06,0x40,0x00,0x00
000330  00000380          DCB      0x00,0x00,0x03,0x80
000334  04402440          DCB      0x04,0x40,0x24,0x40
000338  3fc00040          DCB      0x3f,0xc0,0x00,0x40
00033c  00000380          DCB      0x00,0x00,0x03,0x80
000340  05400540          DCB      0x05,0x40,0x05,0x40
000344  03400000          DCB      0x03,0x40,0x00,0x00
000348  00000440          DCB      0x00,0x00,0x04,0x40
00034c  1fc02440          DCB      0x1f,0xc0,0x24,0x40
000350  24402000          DCB      0x24,0x40,0x20,0x00
000354  000002e0          DCB      0x00,0x00,0x02,0xe0
000358  05500550          DCB      0x05,0x50,0x05,0x50
00035c  06500420          DCB      0x06,0x50,0x04,0x20
000360  20403fc0          DCB      0x20,0x40,0x3f,0xc0
000364  04400400          DCB      0x04,0x40,0x04,0x00
000368  03c00040          DCB      0x03,0xc0,0x00,0x40
00036c  00000440          DCB      0x00,0x00,0x04,0x40
000370  27c00040          DCB      0x27,0xc0,0x00,0x40
000374  00000000          DCB      0x00,0x00,0x00,0x00
000378  00100010          DCB      0x00,0x10,0x00,0x10
00037c  041027e0          DCB      0x04,0x10,0x27,0xe0
000380  00000000          DCB      0x00,0x00,0x00,0x00
000384  20403fc0          DCB      0x20,0x40,0x3f,0xc0
000388  01400700          DCB      0x01,0x40,0x07,0x00
00038c  04c00440          DCB      0x04,0xc0,0x04,0x40
000390  20402040          DCB      0x20,0x40,0x20,0x40
000394  3fc00040          DCB      0x3f,0xc0,0x00,0x40
000398  00400000          DCB      0x00,0x40,0x00,0x00
00039c  07c00400          DCB      0x07,0xc0,0x04,0x00
0003a0  07c00400          DCB      0x07,0xc0,0x04,0x00
0003a4  03c00000          DCB      0x03,0xc0,0x00,0x00
0003a8  044007c0          DCB      0x04,0x40,0x07,0xc0
0003ac  04400400          DCB      0x04,0x40,0x04,0x00
0003b0  03c00040          DCB      0x03,0xc0,0x00,0x40
0003b4  00000380          DCB      0x00,0x00,0x03,0x80
0003b8  04400440          DCB      0x04,0x40,0x04,0x40
0003bc  03800000          DCB      0x03,0x80,0x00,0x00
0003c0  041007f0          DCB      0x04,0x10,0x07,0xf0
0003c4  04500440          DCB      0x04,0x50,0x04,0x40
0003c8  03800000          DCB      0x03,0x80,0x00,0x00
0003cc  00000380          DCB      0x00,0x00,0x03,0x80
0003d0  04400450          DCB      0x04,0x40,0x04,0x50
0003d4  07f00010          DCB      0x07,0xf0,0x00,0x10
0003d8  044007c0          DCB      0x04,0x40,0x07,0xc0
0003dc  02400400          DCB      0x02,0x40,0x04,0x00
0003e0  04000000          DCB      0x04,0x00,0x00,0x00
0003e4  00000640          DCB      0x00,0x00,0x06,0x40
0003e8  05400540          DCB      0x05,0x40,0x05,0x40
0003ec  04c00000          DCB      0x04,0xc0,0x00,0x00
0003f0  00000400          DCB      0x00,0x00,0x04,0x00
0003f4  1f800440          DCB      0x1f,0x80,0x04,0x40
0003f8  00400000          DCB      0x00,0x40,0x00,0x00
0003fc  04000780          DCB      0x04,0x00,0x07,0x80
000400  00400440          DCB      0x00,0x40,0x04,0x40
000404  07c00040          DCB      0x07,0xc0,0x00,0x40
000408  04000700          DCB      0x04,0x00,0x07,0x00
00040c  04c00180          DCB      0x04,0xc0,0x01,0x80
000410  06000400          DCB      0x06,0x00,0x04,0x00
000414  060001c0          DCB      0x06,0x00,0x01,0xc0
000418  070001c0          DCB      0x07,0x00,0x01,0xc0
00041c  06000000          DCB      0x06,0x00,0x00,0x00
000420  044006c0          DCB      0x04,0x40,0x06,0xc0
000424  010006c0          DCB      0x01,0x00,0x06,0xc0
000428  04400000          DCB      0x04,0x40,0x00,0x00
00042c  04100710          DCB      0x04,0x10,0x07,0x10
000430  04e00180          DCB      0x04,0xe0,0x01,0x80
000434  06000400          DCB      0x06,0x00,0x04,0x00
000438  00000440          DCB      0x00,0x00,0x04,0x40
00043c  05c00640          DCB      0x05,0xc0,0x06,0x40
000440  04400000          DCB      0x04,0x40,0x00,0x00
000444  00000000          DCB      0x00,0x00,0x00,0x00
000448  04007be0          DCB      0x04,0x00,0x7b,0xe0
00044c  40200000          DCB      0x40,0x20,0x00,0x00
000450  00000000          DCB      0x00,0x00,0x00,0x00
000454  0000fff0          DCB      0x00,0x00,0xff,0xf0
000458  00000000          DCB      0x00,0x00,0x00,0x00
00045c  00004020          DCB      0x00,0x00,0x40,0x20
000460  7be00400          DCB      0x7b,0xe0,0x04,0x00
000464  00000000          DCB      0x00,0x00,0x00,0x00
000468  40008000          DCB      0x40,0x00,0x80,0x00
00046c  40002000          DCB      0x40,0x00,0x20,0x00
000470  20004000          DCB      0x20,0x00,0x40,0x00
                  asc2_1608
000474  00000000          DCB      0x00,0x00,0x00,0x00
000478  00000000          DCB      0x00,0x00,0x00,0x00
00047c  00000000          DCB      0x00,0x00,0x00,0x00
000480  00000000          DCB      0x00,0x00,0x00,0x00
000484  00000000          DCB      0x00,0x00,0x00,0x00
000488  00001fcc          DCB      0x00,0x00,0x1f,0xcc
00048c  000c0000          DCB      0x00,0x0c,0x00,0x00
000490  00000000          DCB      0x00,0x00,0x00,0x00
000494  00000800          DCB      0x00,0x00,0x08,0x00
000498  30006000          DCB      0x30,0x00,0x60,0x00
00049c  08003000          DCB      0x08,0x00,0x30,0x00
0004a0  60000000          DCB      0x60,0x00,0x00,0x00
0004a4  022003fc          DCB      0x02,0x20,0x03,0xfc
0004a8  1e200220          DCB      0x1e,0x20,0x02,0x20
0004ac  03fc1e20          DCB      0x03,0xfc,0x1e,0x20
0004b0  02200000          DCB      0x02,0x20,0x00,0x00
0004b4  00000e18          DCB      0x00,0x00,0x0e,0x18
0004b8  11043fff          DCB      0x11,0x04,0x3f,0xff
0004bc  10840c78          DCB      0x10,0x84,0x0c,0x78
0004c0  00000000          DCB      0x00,0x00,0x00,0x00
0004c4  0f001084          DCB      0x0f,0x00,0x10,0x84
0004c8  0f3800c0          DCB      0x0f,0x38,0x00,0xc0
0004cc  07781884          DCB      0x07,0x78,0x18,0x84
0004d0  00780000          DCB      0x00,0x78,0x00,0x00
0004d4  00780f84          DCB      0x00,0x78,0x0f,0x84
0004d8  10c41124          DCB      0x10,0xc4,0x11,0x24
0004dc  0e9800e4          DCB      0x0e,0x98,0x00,0xe4
0004e0  00840008          DCB      0x00,0x84,0x00,0x08
0004e4  08006800          DCB      0x08,0x00,0x68,0x00
0004e8  70000000          DCB      0x70,0x00,0x00,0x00
0004ec  00000000          DCB      0x00,0x00,0x00,0x00
0004f0  00000000          DCB      0x00,0x00,0x00,0x00
0004f4  00000000          DCB      0x00,0x00,0x00,0x00
0004f8  000007e0          DCB      0x00,0x00,0x07,0xe0
0004fc  18182004          DCB      0x18,0x18,0x20,0x04
000500  40020000          DCB      0x40,0x02,0x00,0x00
000504  00004002          DCB      0x00,0x00,0x40,0x02
000508  20041818          DCB      0x20,0x04,0x18,0x18
00050c  07e00000          DCB      0x07,0xe0,0x00,0x00
000510  00000000          DCB      0x00,0x00,0x00,0x00
000514  02400240          DCB      0x02,0x40,0x02,0x40
000518  01800ff0          DCB      0x01,0x80,0x0f,0xf0
00051c  01800240          DCB      0x01,0x80,0x02,0x40
000520  02400000          DCB      0x02,0x40,0x00,0x00
000524  00800080          DCB      0x00,0x80,0x00,0x80
000528  00800ff8          DCB      0x00,0x80,0x0f,0xf8
00052c  00800080          DCB      0x00,0x80,0x00,0x80
000530  00800000          DCB      0x00,0x80,0x00,0x00
000534  0001000d          DCB      0x00,0x01,0x00,0x0d
000538  000e0000          DCB      0x00,0x0e,0x00,0x00
00053c  00000000          DCB      0x00,0x00,0x00,0x00
000540  00000000          DCB      0x00,0x00,0x00,0x00
000544  00000080          DCB      0x00,0x00,0x00,0x80
000548  00800080          DCB      0x00,0x80,0x00,0x80
00054c  00800080          DCB      0x00,0x80,0x00,0x80
000550  00800080          DCB      0x00,0x80,0x00,0x80
000554  0000000c          DCB      0x00,0x00,0x00,0x0c
000558  000c0000          DCB      0x00,0x0c,0x00,0x00
00055c  00000000          DCB      0x00,0x00,0x00,0x00
000560  00000000          DCB      0x00,0x00,0x00,0x00
000564  00000006          DCB      0x00,0x00,0x00,0x06
000568  00180060          DCB      0x00,0x18,0x00,0x60
00056c  01800600          DCB      0x01,0x80,0x06,0x00
000570  18002000          DCB      0x18,0x00,0x20,0x00
000574  000007f0          DCB      0x00,0x00,0x07,0xf0
000578  08081004          DCB      0x08,0x08,0x10,0x04
00057c  10040808          DCB      0x10,0x04,0x08,0x08
000580  07f00000          DCB      0x07,0xf0,0x00,0x00
000584  00000804          DCB      0x00,0x00,0x08,0x04
000588  08041ffc          DCB      0x08,0x04,0x1f,0xfc
00058c  00040004          DCB      0x00,0x04,0x00,0x04
000590  00000000          DCB      0x00,0x00,0x00,0x00
000594  00000e0c          DCB      0x00,0x00,0x0e,0x0c
000598  10141024          DCB      0x10,0x14,0x10,0x24
00059c  10441184          DCB      0x10,0x44,0x11,0x84
0005a0  0e0c0000          DCB      0x0e,0x0c,0x00,0x00
0005a4  00000c18          DCB      0x00,0x00,0x0c,0x18
0005a8  10041104          DCB      0x10,0x04,0x11,0x04
0005ac  11041288          DCB      0x11,0x04,0x12,0x88
0005b0  0c700000          DCB      0x0c,0x70,0x00,0x00
0005b4  000000e0          DCB      0x00,0x00,0x00,0xe0
0005b8  03200424          DCB      0x03,0x20,0x04,0x24
0005bc  08241ffc          DCB      0x08,0x24,0x1f,0xfc
0005c0  00240000          DCB      0x00,0x24,0x00,0x00
0005c4  00001f98          DCB      0x00,0x00,0x1f,0x98
0005c8  10841104          DCB      0x10,0x84,0x11,0x04
0005cc  11041088          DCB      0x11,0x04,0x10,0x88
0005d0  10700000          DCB      0x10,0x70,0x00,0x00
0005d4  000007f0          DCB      0x00,0x00,0x07,0xf0
0005d8  08881104          DCB      0x08,0x88,0x11,0x04
0005dc  11041888          DCB      0x11,0x04,0x18,0x88
0005e0  00700000          DCB      0x00,0x70,0x00,0x00
0005e4  00001c00          DCB      0x00,0x00,0x1c,0x00
0005e8  100010fc          DCB      0x10,0x00,0x10,0xfc
0005ec  13001c00          DCB      0x13,0x00,0x1c,0x00
0005f0  10000000          DCB      0x10,0x00,0x00,0x00
0005f4  00000e38          DCB      0x00,0x00,0x0e,0x38
0005f8  11441084          DCB      0x11,0x44,0x10,0x84
0005fc  10841144          DCB      0x10,0x84,0x11,0x44
000600  0e380000          DCB      0x0e,0x38,0x00,0x00
000604  00000700          DCB      0x00,0x00,0x07,0x00
000608  088c1044          DCB      0x08,0x8c,0x10,0x44
00060c  10440888          DCB      0x10,0x44,0x08,0x88
000610  07f00000          DCB      0x07,0xf0,0x00,0x00
000614  00000000          DCB      0x00,0x00,0x00,0x00
000618  0000030c          DCB      0x00,0x00,0x03,0x0c
00061c  030c0000          DCB      0x03,0x0c,0x00,0x00
000620  00000000          DCB      0x00,0x00,0x00,0x00
000624  00000000          DCB      0x00,0x00,0x00,0x00
000628  00010106          DCB      0x00,0x01,0x01,0x06
00062c  00000000          DCB      0x00,0x00,0x00,0x00
000630  00000000          DCB      0x00,0x00,0x00,0x00
000634  00000080          DCB      0x00,0x00,0x00,0x80
000638  01400220          DCB      0x01,0x40,0x02,0x20
00063c  04100808          DCB      0x04,0x10,0x08,0x08
000640  10040000          DCB      0x10,0x04,0x00,0x00
000644  02200220          DCB      0x02,0x20,0x02,0x20
000648  02200220          DCB      0x02,0x20,0x02,0x20
00064c  02200220          DCB      0x02,0x20,0x02,0x20
000650  02200000          DCB      0x02,0x20,0x00,0x00
000654  00001004          DCB      0x00,0x00,0x10,0x04
000658  08080410          DCB      0x08,0x08,0x04,0x10
00065c  02200140          DCB      0x02,0x20,0x01,0x40
000660  00800000          DCB      0x00,0x80,0x00,0x00
000664  00000e00          DCB      0x00,0x00,0x0e,0x00
000668  1200100c          DCB      0x12,0x00,0x10,0x0c
00066c  106c1080          DCB      0x10,0x6c,0x10,0x80
000670  0f000000          DCB      0x0f,0x00,0x00,0x00
000674  03e00c18          DCB      0x03,0xe0,0x0c,0x18
000678  13e41424          DCB      0x13,0xe4,0x14,0x24
00067c  17c40828          DCB      0x17,0xc4,0x08,0x28
000680  07d00000          DCB      0x07,0xd0,0x00,0x00
000684  0004003c          DCB      0x00,0x04,0x00,0x3c
000688  03c41c40          DCB      0x03,0xc4,0x1c,0x40
00068c  074000e4          DCB      0x07,0x40,0x00,0xe4
000690  001c0004          DCB      0x00,0x1c,0x00,0x04
000694  10041ffc          DCB      0x10,0x04,0x1f,0xfc
000698  11041104          DCB      0x11,0x04,0x11,0x04
00069c  11040e88          DCB      0x11,0x04,0x0e,0x88
0006a0  00700000          DCB      0x00,0x70,0x00,0x00
0006a4  03e00c18          DCB      0x03,0xe0,0x0c,0x18
0006a8  10041004          DCB      0x10,0x04,0x10,0x04
0006ac  10041008          DCB      0x10,0x04,0x10,0x08
0006b0  1c100000          DCB      0x1c,0x10,0x00,0x00
0006b4  10041ffc          DCB      0x10,0x04,0x1f,0xfc
0006b8  10041004          DCB      0x10,0x04,0x10,0x04
0006bc  10040808          DCB      0x10,0x04,0x08,0x08
0006c0  07f00000          DCB      0x07,0xf0,0x00,0x00
0006c4  10041ffc          DCB      0x10,0x04,0x1f,0xfc
0006c8  11041104          DCB      0x11,0x04,0x11,0x04
0006cc  17c41004          DCB      0x17,0xc4,0x10,0x04
0006d0  08180000          DCB      0x08,0x18,0x00,0x00
0006d4  10041ffc          DCB      0x10,0x04,0x1f,0xfc
0006d8  11041100          DCB      0x11,0x04,0x11,0x00
0006dc  17c01000          DCB      0x17,0xc0,0x10,0x00
0006e0  08000000          DCB      0x08,0x00,0x00,0x00
0006e4  03e00c18          DCB      0x03,0xe0,0x0c,0x18
0006e8  10041004          DCB      0x10,0x04,0x10,0x04
0006ec  10441c78          DCB      0x10,0x44,0x1c,0x78
0006f0  00400000          DCB      0x00,0x40,0x00,0x00
0006f4  10041ffc          DCB      0x10,0x04,0x1f,0xfc
0006f8  10840080          DCB      0x10,0x84,0x00,0x80
0006fc  00801084          DCB      0x00,0x80,0x10,0x84
000700  1ffc1004          DCB      0x1f,0xfc,0x10,0x04
000704  00001004          DCB      0x00,0x00,0x10,0x04
000708  10041ffc          DCB      0x10,0x04,0x1f,0xfc
00070c  10041004          DCB      0x10,0x04,0x10,0x04
000710  00000000          DCB      0x00,0x00,0x00,0x00
000714  00030001          DCB      0x00,0x03,0x00,0x01
000718  10011001          DCB      0x10,0x01,0x10,0x01
00071c  1ffe1000          DCB      0x1f,0xfe,0x10,0x00
000720  10000000          DCB      0x10,0x00,0x00,0x00
000724  10041ffc          DCB      0x10,0x04,0x1f,0xfc
000728  11040380          DCB      0x11,0x04,0x03,0x80
00072c  1464181c          DCB      0x14,0x64,0x18,0x1c
000730  10040000          DCB      0x10,0x04,0x00,0x00
000734  10041ffc          DCB      0x10,0x04,0x1f,0xfc
000738  10040004          DCB      0x10,0x04,0x00,0x04
00073c  00040004          DCB      0x00,0x04,0x00,0x04
000740  000c0000          DCB      0x00,0x0c,0x00,0x00
000744  10041ffc          DCB      0x10,0x04,0x1f,0xfc
000748  1f0000fc          DCB      0x1f,0x00,0x00,0xfc
00074c  1f001ffc          DCB      0x1f,0x00,0x1f,0xfc
000750  10040000          DCB      0x10,0x04,0x00,0x00
000754  10041ffc          DCB      0x10,0x04,0x1f,0xfc
000758  0c040300          DCB      0x0c,0x04,0x03,0x00
00075c  00e01018          DCB      0x00,0xe0,0x10,0x18
000760  1ffc1000          DCB      0x1f,0xfc,0x10,0x00
000764  07f00808          DCB      0x07,0xf0,0x08,0x08
000768  10041004          DCB      0x10,0x04,0x10,0x04
00076c  10040808          DCB      0x10,0x04,0x08,0x08
000770  07f00000          DCB      0x07,0xf0,0x00,0x00
000774  10041ffc          DCB      0x10,0x04,0x1f,0xfc
000778  10841080          DCB      0x10,0x84,0x10,0x80
00077c  10801080          DCB      0x10,0x80,0x10,0x80
000780  0f000000          DCB      0x0f,0x00,0x00,0x00
000784  07f00818          DCB      0x07,0xf0,0x08,0x18
000788  10241024          DCB      0x10,0x24,0x10,0x24
00078c  101c080a          DCB      0x10,0x1c,0x08,0x0a
000790  07f20000          DCB      0x07,0xf2,0x00,0x00
000794  10041ffc          DCB      0x10,0x04,0x1f,0xfc
000798  11041100          DCB      0x11,0x04,0x11,0x00
00079c  11c01130          DCB      0x11,0xc0,0x11,0x30
0007a0  0e0c0004          DCB      0x0e,0x0c,0x00,0x04
0007a4  00000e1c          DCB      0x00,0x00,0x0e,0x1c
0007a8  11041084          DCB      0x11,0x04,0x10,0x84
0007ac  10841044          DCB      0x10,0x84,0x10,0x44
0007b0  1c380000          DCB      0x1c,0x38,0x00,0x00
0007b4  18001000          DCB      0x18,0x00,0x10,0x00
0007b8  10041ffc          DCB      0x10,0x04,0x1f,0xfc
0007bc  10041000          DCB      0x10,0x04,0x10,0x00
0007c0  18000000          DCB      0x18,0x00,0x00,0x00
0007c4  10001ff8          DCB      0x10,0x00,0x1f,0xf8
0007c8  10040004          DCB      0x10,0x04,0x00,0x04
0007cc  00041004          DCB      0x00,0x04,0x10,0x04
0007d0  1ff81000          DCB      0x1f,0xf8,0x10,0x00
0007d4  10001e00          DCB      0x10,0x00,0x1e,0x00
0007d8  11e0001c          DCB      0x11,0xe0,0x00,0x1c
0007dc  00701380          DCB      0x00,0x70,0x13,0x80
0007e0  1c001000          DCB      0x1c,0x00,0x10,0x00
0007e4  1fc0103c          DCB      0x1f,0xc0,0x10,0x3c
0007e8  00e01f00          DCB      0x00,0xe0,0x1f,0x00
0007ec  00e0103c          DCB      0x00,0xe0,0x10,0x3c
0007f0  1fc00000          DCB      0x1f,0xc0,0x00,0x00
0007f4  1004180c          DCB      0x10,0x04,0x18,0x0c
0007f8  163401c0          DCB      0x16,0x34,0x01,0xc0
0007fc  01c01634          DCB      0x01,0xc0,0x16,0x34
000800  180c1004          DCB      0x18,0x0c,0x10,0x04
000804  10001c00          DCB      0x10,0x00,0x1c,0x00
000808  130400fc          DCB      0x13,0x04,0x00,0xfc
00080c  13041c00          DCB      0x13,0x04,0x1c,0x00
000810  10000000          DCB      0x10,0x00,0x00,0x00
000814  0804101c          DCB      0x08,0x04,0x10,0x1c
000818  10641084          DCB      0x10,0x64,0x10,0x84
00081c  13041c04          DCB      0x13,0x04,0x1c,0x04
000820  10180000          DCB      0x10,0x18,0x00,0x00
000824  00000000          DCB      0x00,0x00,0x00,0x00
000828  00007ffe          DCB      0x00,0x00,0x7f,0xfe
00082c  40024002          DCB      0x40,0x02,0x40,0x02
000830  40020000          DCB      0x40,0x02,0x00,0x00
000834  00003000          DCB      0x00,0x00,0x30,0x00
000838  0c000380          DCB      0x0c,0x00,0x03,0x80
00083c  0060001c          DCB      0x00,0x60,0x00,0x1c
000840  00030000          DCB      0x00,0x03,0x00,0x00
000844  00004002          DCB      0x00,0x00,0x40,0x02
000848  40024002          DCB      0x40,0x02,0x40,0x02
00084c  7ffe0000          DCB      0x7f,0xfe,0x00,0x00
000850  00000000          DCB      0x00,0x00,0x00,0x00
000854  00000000          DCB      0x00,0x00,0x00,0x00
000858  20004000          DCB      0x20,0x00,0x40,0x00
00085c  40004000          DCB      0x40,0x00,0x40,0x00
000860  20000000          DCB      0x20,0x00,0x00,0x00
000864  00010001          DCB      0x00,0x01,0x00,0x01
000868  00010001          DCB      0x00,0x01,0x00,0x01
00086c  00010001          DCB      0x00,0x01,0x00,0x01
000870  00010001          DCB      0x00,0x01,0x00,0x01
000874  00004000          DCB      0x00,0x00,0x40,0x00
000878  40002000          DCB      0x40,0x00,0x20,0x00
00087c  00000000          DCB      0x00,0x00,0x00,0x00
000880  00000000          DCB      0x00,0x00,0x00,0x00
000884  00000098          DCB      0x00,0x00,0x00,0x98
000888  01240144          DCB      0x01,0x24,0x01,0x44
00088c  01440144          DCB      0x01,0x44,0x01,0x44
000890  00fc0004          DCB      0x00,0xfc,0x00,0x04
000894  10001ffc          DCB      0x10,0x00,0x1f,0xfc
000898  00880104          DCB      0x00,0x88,0x01,0x04
00089c  01040088          DCB      0x01,0x04,0x00,0x88
0008a0  00700000          DCB      0x00,0x70,0x00,0x00
0008a4  00000070          DCB      0x00,0x00,0x00,0x70
0008a8  00880104          DCB      0x00,0x88,0x01,0x04
0008ac  01040104          DCB      0x01,0x04,0x01,0x04
0008b0  00880000          DCB      0x00,0x88,0x00,0x00
0008b4  00000070          DCB      0x00,0x00,0x00,0x70
0008b8  00880104          DCB      0x00,0x88,0x01,0x04
0008bc  01041108          DCB      0x01,0x04,0x11,0x08
0008c0  1ffc0004          DCB      0x1f,0xfc,0x00,0x04
0008c4  000000f8          DCB      0x00,0x00,0x00,0xf8
0008c8  01440144          DCB      0x01,0x44,0x01,0x44
0008cc  01440144          DCB      0x01,0x44,0x01,0x44
0008d0  00c80000          DCB      0x00,0xc8,0x00,0x00
0008d4  00000104          DCB      0x00,0x00,0x01,0x04
0008d8  01040ffc          DCB      0x01,0x04,0x0f,0xfc
0008dc  11041104          DCB      0x11,0x04,0x11,0x04
0008e0  11001800          DCB      0x11,0x00,0x18,0x00
0008e4  000000d6          DCB      0x00,0x00,0x00,0xd6
0008e8  01290129          DCB      0x01,0x29,0x01,0x29
0008ec  012901c9          DCB      0x01,0x29,0x01,0xc9
0008f0  01060000          DCB      0x01,0x06,0x00,0x00
0008f4  10041ffc          DCB      0x10,0x04,0x1f,0xfc
0008f8  00840100          DCB      0x00,0x84,0x01,0x00
0008fc  01000104          DCB      0x01,0x00,0x01,0x04
000900  00fc0004          DCB      0x00,0xfc,0x00,0x04
000904  00000104          DCB      0x00,0x00,0x01,0x04
000908  190419fc          DCB      0x19,0x04,0x19,0xfc
00090c  00040004          DCB      0x00,0x04,0x00,0x04
000910  00000000          DCB      0x00,0x00,0x00,0x00
000914  00000003          DCB      0x00,0x00,0x00,0x03
000918  00010101          DCB      0x00,0x01,0x01,0x01
00091c  190119fe          DCB      0x19,0x01,0x19,0xfe
000920  00000000          DCB      0x00,0x00,0x00,0x00
000924  10041ffc          DCB      0x10,0x04,0x1f,0xfc
000928  00240040          DCB      0x00,0x24,0x00,0x40
00092c  01b4010c          DCB      0x01,0xb4,0x01,0x0c
000930  01040000          DCB      0x01,0x04,0x00,0x00
000934  00001004          DCB      0x00,0x00,0x10,0x04
000938  10041ffc          DCB      0x10,0x04,0x1f,0xfc
00093c  00040004          DCB      0x00,0x04,0x00,0x04
000940  00000000          DCB      0x00,0x00,0x00,0x00
000944  010401fc          DCB      0x01,0x04,0x01,0xfc
000948  01040100          DCB      0x01,0x04,0x01,0x00
00094c  01fc0104          DCB      0x01,0xfc,0x01,0x04
000950  010000fc          DCB      0x01,0x00,0x00,0xfc
000954  010401fc          DCB      0x01,0x04,0x01,0xfc
000958  00840100          DCB      0x00,0x84,0x01,0x00
00095c  01000104          DCB      0x01,0x00,0x01,0x04
000960  00fc0004          DCB      0x00,0xfc,0x00,0x04
000964  000000f8          DCB      0x00,0x00,0x00,0xf8
000968  01040104          DCB      0x01,0x04,0x01,0x04
00096c  01040104          DCB      0x01,0x04,0x01,0x04
000970  00f80000          DCB      0x00,0xf8,0x00,0x00
000974  010101ff          DCB      0x01,0x01,0x01,0xff
000978  00850104          DCB      0x00,0x85,0x01,0x04
00097c  01040088          DCB      0x01,0x04,0x00,0x88
000980  00700000          DCB      0x00,0x70,0x00,0x00
000984  00000070          DCB      0x00,0x00,0x00,0x70
000988  00880104          DCB      0x00,0x88,0x01,0x04
00098c  01040105          DCB      0x01,0x04,0x01,0x05
000990  01ff0001          DCB      0x01,0xff,0x00,0x01
000994  01040104          DCB      0x01,0x04,0x01,0x04
000998  01fc0084          DCB      0x01,0xfc,0x00,0x84
00099c  01040100          DCB      0x01,0x04,0x01,0x00
0009a0  01800000          DCB      0x01,0x80,0x00,0x00
0009a4  000000cc          DCB      0x00,0x00,0x00,0xcc
0009a8  01240124          DCB      0x01,0x24,0x01,0x24
0009ac  01240124          DCB      0x01,0x24,0x01,0x24
0009b0  01980000          DCB      0x01,0x98,0x00,0x00
0009b4  00000100          DCB      0x00,0x00,0x01,0x00
0009b8  010007f8          DCB      0x01,0x00,0x07,0xf8
0009bc  01040104          DCB      0x01,0x04,0x01,0x04
0009c0  00000000          DCB      0x00,0x00,0x00,0x00
0009c4  010001f8          DCB      0x01,0x00,0x01,0xf8
0009c8  00040004          DCB      0x00,0x04,0x00,0x04
0009cc  00040108          DCB      0x00,0x04,0x01,0x08
0009d0  01fc0004          DCB      0x01,0xfc,0x00,0x04
0009d4  01000180          DCB      0x01,0x00,0x01,0x80
0009d8  0170000c          DCB      0x01,0x70,0x00,0x0c
0009dc  00100160          DCB      0x00,0x10,0x01,0x60
0009e0  01800100          DCB      0x01,0x80,0x01,0x00
0009e4  01f0010c          DCB      0x01,0xf0,0x01,0x0c
0009e8  003001c0          DCB      0x00,0x30,0x01,0xc0
0009ec  0030010c          DCB      0x00,0x30,0x01,0x0c
0009f0  01f00100          DCB      0x01,0xf0,0x01,0x00
0009f4  00000104          DCB      0x00,0x00,0x01,0x04
0009f8  018c0074          DCB      0x01,0x8c,0x00,0x74
0009fc  0170018c          DCB      0x01,0x70,0x01,0x8c
000a00  01040000          DCB      0x01,0x04,0x00,0x00
000a04  01010181          DCB      0x01,0x01,0x01,0x81
000a08  0171000e          DCB      0x01,0x71,0x00,0x0e
000a0c  00180160          DCB      0x00,0x18,0x01,0x60
000a10  01800100          DCB      0x01,0x80,0x01,0x00
000a14  00000184          DCB      0x00,0x00,0x01,0x84
000a18  010c0134          DCB      0x01,0x0c,0x01,0x34
000a1c  01440184          DCB      0x01,0x44,0x01,0x84
000a20  010c0000          DCB      0x01,0x0c,0x00,0x00
000a24  00000000          DCB      0x00,0x00,0x00,0x00
000a28  00000000          DCB      0x00,0x00,0x00,0x00
000a2c  01003efc          DCB      0x01,0x00,0x3e,0xfc
000a30  40024002          DCB      0x40,0x02,0x40,0x02
000a34  00000000          DCB      0x00,0x00,0x00,0x00
000a38  00000000          DCB      0x00,0x00,0x00,0x00
000a3c  ffff0000          DCB      0xff,0xff,0x00,0x00
000a40  00000000          DCB      0x00,0x00,0x00,0x00
000a44  00004002          DCB      0x00,0x00,0x40,0x02
000a48  40023efc          DCB      0x40,0x02,0x3e,0xfc
000a4c  01000000          DCB      0x01,0x00,0x00,0x00
000a50  00000000          DCB      0x00,0x00,0x00,0x00
000a54  00006000          DCB      0x00,0x00,0x60,0x00
000a58  80008000          DCB      0x80,0x00,0x80,0x00
000a5c  40004000          DCB      0x40,0x00,0x40,0x00
000a60  20002000          DCB      0x20,0x00,0x20,0x00
                  asc2_2412
000a64  00000000          DCB      0x00,0x00,0x00,0x00
000a68  00000000          DCB      0x00,0x00,0x00,0x00
000a6c  00000000          DCB      0x00,0x00,0x00,0x00
000a70  00000000          DCB      0x00,0x00,0x00,0x00
000a74  00000000          DCB      0x00,0x00,0x00,0x00
000a78  00000000          DCB      0x00,0x00,0x00,0x00
000a7c  00000000          DCB      0x00,0x00,0x00,0x00
000a80  00000000          DCB      0x00,0x00,0x00,0x00
000a84  00000000          DCB      0x00,0x00,0x00,0x00
000a88  00000000          DCB      0x00,0x00,0x00,0x00
000a8c  00000000          DCB      0x00,0x00,0x00,0x00
000a90  00000000          DCB      0x00,0x00,0x00,0x00
000a94  0000000f          DCB      0x00,0x00,0x00,0x0f
000a98  80380ffe          DCB      0x80,0x38,0x0f,0xfe
000a9c  380f8038          DCB      0x38,0x0f,0x80,0x38
000aa0  00000000          DCB      0x00,0x00,0x00,0x00
000aa4  00000000          DCB      0x00,0x00,0x00,0x00
000aa8  00000000          DCB      0x00,0x00,0x00,0x00
000aac  00000000          DCB      0x00,0x00,0x00,0x00
000ab0  00000100          DCB      0x00,0x00,0x01,0x00
000ab4  00060000          DCB      0x00,0x06,0x00,0x00
000ab8  0c000038          DCB      0x0c,0x00,0x00,0x38
000abc  00003100          DCB      0x00,0x00,0x31,0x00
000ac0  00060000          DCB      0x00,0x06,0x00,0x00
000ac4  0c000038          DCB      0x0c,0x00,0x00,0x38
000ac8  00003000          DCB      0x00,0x00,0x30,0x00
000acc  00000000          DCB      0x00,0x00,0x00,0x00
000ad0  00000000          DCB      0x00,0x00,0x00,0x00
000ad4  61800067          DCB      0x61,0x80,0x00,0x67
000ad8  f807f980          DCB      0xf8,0x07,0xf9,0x80
000adc  00618000          DCB      0x00,0x61,0x80,0x00
000ae0  61800061          DCB      0x61,0x80,0x00,0x61
000ae4  80006180          DCB      0x80,0x00,0x61,0x80
000ae8  0067f807          DCB      0x00,0x67,0xf8,0x07
000aec  f9800061          DCB      0xf9,0x80,0x00,0x61
000af0  80000000          DCB      0x80,0x00,0x00,0x00
000af4  00000000          DCB      0x00,0x00,0x00,0x00
000af8  000001c0          DCB      0x00,0x00,0x01,0xc0
000afc  e003e0f0          DCB      0xe0,0x03,0xe0,0xf0
000b00  06300804          DCB      0x06,0x30,0x08,0x04
000b04  18081fff          DCB      0x18,0x08,0x1f,0xff
000b08  fe040e08          DCB      0xfe,0x04,0x0e,0x08
000b0c  0787f003          DCB      0x07,0x87,0xf0,0x03
000b10  81e00000          DCB      0x81,0xe0,0x00,0x00
000b14  00000000          DCB      0x00,0x00,0x00,0x00
000b18  01f00006          DCB      0x01,0xf0,0x00,0x06
000b1c  0c000404          DCB      0x0c,0x00,0x04,0x04
000b20  08060c70          DCB      0x08,0x06,0x0c,0x70
000b24  01f9c000          DCB      0x01,0xf9,0xc0,0x00
000b28  0e00003b          DCB      0x0e,0x00,0x00,0x3b
000b2c  e000ec18          DCB      0xe0,0x00,0xec,0x18
000b30  07080804          DCB      0x07,0x08,0x08,0x04
000b34  0c180003          DCB      0x0c,0x18,0x00,0x03
000b38  e0000000          DCB      0xe0,0x00,0x00,0x00
000b3c  0001e000          DCB      0x00,0x01,0xe0,0x00
000b40  07f003f8          DCB      0x07,0xf0,0x03,0xf8
000b44  18041c08          DCB      0x18,0x04,0x1c,0x08
000b48  04170807          DCB      0x04,0x17,0x08,0x07
000b4c  e1d003c0          DCB      0xe1,0xd0,0x03,0xc0
000b50  e00023b0          DCB      0xe0,0x00,0x23,0xb0
000b54  003c0800          DCB      0x00,0x3c,0x08,0x00
000b58  20080000          DCB      0x20,0x08,0x00,0x00
000b5c  10000000          DCB      0x10,0x00,0x00,0x00
000b60  00000001          DCB      0x00,0x00,0x00,0x01
000b64  00003100          DCB      0x00,0x00,0x31,0x00
000b68  00320000          DCB      0x00,0x32,0x00,0x00
000b6c  1c000000          DCB      0x1c,0x00,0x00,0x00
000b70  00000000          DCB      0x00,0x00,0x00,0x00
000b74  00000000          DCB      0x00,0x00,0x00,0x00
000b78  00000000          DCB      0x00,0x00,0x00,0x00
000b7c  00000000          DCB      0x00,0x00,0x00,0x00
000b80  00000000          DCB      0x00,0x00,0x00,0x00
000b84  00000000          DCB      0x00,0x00,0x00,0x00
000b88  00000000          DCB      0x00,0x00,0x00,0x00
000b8c  00000000          DCB      0x00,0x00,0x00,0x00
000b90  00000000          DCB      0x00,0x00,0x00,0x00
000b94  7f0001ff          DCB      0x7f,0x00,0x01,0xff
000b98  c00780f0          DCB      0xc0,0x07,0x80,0xf0
000b9c  0c001810          DCB      0x0c,0x00,0x18,0x10
000ba0  00042000          DCB      0x00,0x04,0x20,0x00
000ba4  02000000          DCB      0x02,0x00,0x00,0x00
000ba8  00000020          DCB      0x00,0x00,0x00,0x20
000bac  00021000          DCB      0x00,0x02,0x10,0x00
000bb0  040c0018          DCB      0x04,0x0c,0x00,0x18
000bb4  0780f001          DCB      0x07,0x80,0xf0,0x01
000bb8  ffc0007f          DCB      0xff,0xc0,0x00,0x7f
000bbc  00000000          DCB      0x00,0x00,0x00,0x00
000bc0  00000000          DCB      0x00,0x00,0x00,0x00
000bc4  00000000          DCB      0x00,0x00,0x00,0x00
000bc8  00000000          DCB      0x00,0x00,0x00,0x00
000bcc  00000000          DCB      0x00,0x00,0x00,0x00
000bd0  42000066          DCB      0x42,0x00,0x00,0x66
000bd4  00006600          DCB      0x00,0x00,0x66,0x00
000bd8  003c0000          DCB      0x00,0x3c,0x00,0x00
000bdc  180003ff          DCB      0x18,0x00,0x03,0xff
000be0  c0001800          DCB      0xc0,0x00,0x18,0x00
000be4  003c0000          DCB      0x00,0x3c,0x00,0x00
000be8  66000066          DCB      0x66,0x00,0x00,0x66
000bec  00004200          DCB      0x00,0x00,0x42,0x00
000bf0  00000000          DCB      0x00,0x00,0x00,0x00
000bf4  08000008          DCB      0x08,0x00,0x00,0x08
000bf8  00000800          DCB      0x00,0x00,0x08,0x00
000bfc  00080000          DCB      0x00,0x08,0x00,0x00
000c00  080001ff          DCB      0x08,0x00,0x01,0xff
000c04  c0000800          DCB      0xc0,0x00,0x08,0x00
000c08  00080000          DCB      0x00,0x08,0x00,0x00
000c0c  08000008          DCB      0x08,0x00,0x00,0x08
000c10  00000800          DCB      0x00,0x00,0x08,0x00
000c14  00000000          DCB      0x00,0x00,0x00,0x00
000c18  00010000          DCB      0x00,0x01,0x00,0x00
000c1c  31000032          DCB      0x31,0x00,0x00,0x32
000c20  00001c00          DCB      0x00,0x00,0x1c,0x00
000c24  00000000          DCB      0x00,0x00,0x00,0x00
000c28  00000000          DCB      0x00,0x00,0x00,0x00
000c2c  00000000          DCB      0x00,0x00,0x00,0x00
000c30  00000000          DCB      0x00,0x00,0x00,0x00
000c34  00000000          DCB      0x00,0x00,0x00,0x00
000c38  00000000          DCB      0x00,0x00,0x00,0x00
000c3c  08000008          DCB      0x08,0x00,0x00,0x08
000c40  00000800          DCB      0x00,0x00,0x08,0x00
000c44  00080000          DCB      0x00,0x08,0x00,0x00
000c48  08000008          DCB      0x08,0x00,0x00,0x08
000c4c  00000800          DCB      0x00,0x00,0x08,0x00
000c50  00080000          DCB      0x00,0x08,0x00,0x00
000c54  08000008          DCB      0x08,0x00,0x00,0x08
000c58  00000000          DCB      0x00,0x00,0x00,0x00
000c5c  00000000          DCB      0x00,0x00,0x00,0x00
000c60  00000000          DCB      0x00,0x00,0x00,0x00
000c64  38000038          DCB      0x38,0x00,0x00,0x38
000c68  00003800          DCB      0x00,0x00,0x38,0x00
000c6c  00000000          DCB      0x00,0x00,0x00,0x00
000c70  00000000          DCB      0x00,0x00,0x00,0x00
000c74  00000000          DCB      0x00,0x00,0x00,0x00
000c78  00000000          DCB      0x00,0x00,0x00,0x00
000c7c  00000000          DCB      0x00,0x00,0x00,0x00
000c80  00000000          DCB      0x00,0x00,0x00,0x00
000c84  00060000          DCB      0x00,0x06,0x00,0x00
000c88  1c000070          DCB      0x1c,0x00,0x00,0x70
000c8c  00018000          DCB      0x00,0x01,0x80,0x00
000c90  0e000038          DCB      0x0e,0x00,0x00,0x38
000c94  0000c000          DCB      0x00,0x00,0xc0,0x00
000c98  0700001c          DCB      0x07,0x00,0x00,0x1c
000c9c  00003000          DCB      0x00,0x00,0x30,0x00
000ca0  00000000          DCB      0x00,0x00,0x00,0x00
000ca4  00000000          DCB      0x00,0x00,0x00,0x00
000ca8  7f8001ff          DCB      0x7f,0x80,0x01,0xff
000cac  e0038070          DCB      0xe0,0x03,0x80,0x70
000cb0  06001804          DCB      0x06,0x00,0x18,0x04
000cb4  00080400          DCB      0x00,0x08,0x04,0x00
000cb8  08060018          DCB      0x08,0x06,0x00,0x18
000cbc  03807001          DCB      0x03,0x80,0x70,0x01
000cc0  ffe0007f          DCB      0xff,0xe0,0x00,0x7f
000cc4  80000000          DCB      0x80,0x00,0x00,0x00
000cc8  00000000          DCB      0x00,0x00,0x00,0x00
000ccc  00000100          DCB      0x00,0x00,0x01,0x00
000cd0  08010008          DCB      0x08,0x01,0x00,0x08
000cd4  01000803          DCB      0x01,0x00,0x08,0x03
000cd8  fff807ff          DCB      0xff,0xf8,0x07,0xff
000cdc  f8000008          DCB      0xf8,0x00,0x00,0x08
000ce0  00000800          DCB      0x00,0x00,0x08,0x00
000ce4  00080000          DCB      0x00,0x08,0x00,0x00
000ce8  00000000          DCB      0x00,0x00,0x00,0x00
000cec  00000001          DCB      0x00,0x00,0x00,0x01
000cf0  c03802c0          DCB      0xc0,0x38,0x02,0xc0
000cf4  58040098          DCB      0x58,0x04,0x00,0x98
000cf8  04011804          DCB      0x04,0x01,0x18,0x04
000cfc  02180404          DCB      0x02,0x18,0x04,0x04
000d00  18061c18          DCB      0x18,0x06,0x1c,0x18
000d04  03f81801          DCB      0x03,0xf8,0x18,0x01
000d08  e0f80000          DCB      0xe0,0xf8,0x00,0x00
000d0c  00000000          DCB      0x00,0x00,0x00,0x00
000d10  00000001          DCB      0x00,0x00,0x00,0x01
000d14  c0e003c0          DCB      0xc0,0xe0,0x03,0xc0
000d18  f0040008          DCB      0xf0,0x04,0x00,0x08
000d1c  04080804          DCB      0x04,0x08,0x08,0x04
000d20  08080618          DCB      0x08,0x08,0x06,0x18
000d24  0803f418          DCB      0x08,0x03,0xf4,0x18
000d28  01e7f000          DCB      0x01,0xe7,0xf0,0x00
000d2c  01e00000          DCB      0x01,0xe0,0x00,0x00
000d30  00000000          DCB      0x00,0x00,0x00,0x00
000d34  00000000          DCB      0x00,0x00,0x00,0x00
000d38  0300000d          DCB      0x03,0x00,0x00,0x0d
000d3c  00001100          DCB      0x00,0x00,0x11,0x00
000d40  00610000          DCB      0x00,0x61,0x00,0x00
000d44  81080301          DCB      0x81,0x08,0x03,0x01
000d48  0807fff8          DCB      0x08,0x07,0xff,0xf8
000d4c  0ffff800          DCB      0x0f,0xff,0xf8,0x00
000d50  01080001          DCB      0x01,0x08,0x00,0x01
000d54  08000000          DCB      0x08,0x00,0x00,0x00
000d58  00000000          DCB      0x00,0x00,0x00,0x00
000d5c  00e007fc          DCB      0x00,0xe0,0x07,0xfc
000d60  d0060808          DCB      0xd0,0x06,0x08,0x08
000d64  06100806          DCB      0x06,0x10,0x08,0x06
000d68  10080610          DCB      0x10,0x08,0x06,0x10
000d6c  08061838          DCB      0x08,0x06,0x18,0x38
000d70  060ff006          DCB      0x06,0x0f,0xf0,0x06
000d74  07c00000          DCB      0x07,0xc0,0x00,0x00
000d78  00000000          DCB      0x00,0x00,0x00,0x00
000d7c  00000000          DCB      0x00,0x00,0x00,0x00
000d80  3f8001ff          DCB      0x3f,0x80,0x01,0xff
000d84  e0038430          DCB      0xe0,0x03,0x84,0x30
000d88  02081804          DCB      0x02,0x08,0x18,0x04
000d8c  10080410          DCB      0x10,0x08,0x04,0x10
000d90  08041008          DCB      0x08,0x04,0x10,0x08
000d94  07181003          DCB      0x07,0x18,0x10,0x03
000d98  0ff00007          DCB      0x0f,0xf0,0x00,0x07
000d9c  c0000000          DCB      0xc0,0x00,0x00,0x00
000da0  00000000          DCB      0x00,0x00,0x00,0x00
000da4  000003c0          DCB      0x00,0x00,0x03,0xc0
000da8  00070000          DCB      0x00,0x07,0x00,0x00
000dac  06000006          DCB      0x06,0x00,0x00,0x06
000db0  00f80607          DCB      0x00,0xf8,0x06,0x07
000db4  f8061800          DCB      0xf8,0x06,0x18,0x00
000db8  06e00007          DCB      0x06,0xe0,0x00,0x07
000dbc  00000600          DCB      0x00,0x00,0x06,0x00
000dc0  00000000          DCB      0x00,0x00,0x00,0x00
000dc4  00000001          DCB      0x00,0x00,0x00,0x01
000dc8  e1e003f7          DCB      0xe1,0xe0,0x03,0xf7
000dcc  f0063410          DCB      0xf0,0x06,0x34,0x10
000dd0  04180804          DCB      0x04,0x18,0x08,0x04
000dd4  1808040c          DCB      0x18,0x08,0x04,0x0c
000dd8  08040c08          DCB      0x08,0x04,0x0c,0x08
000ddc  06161803          DCB      0x06,0x16,0x18,0x03
000de0  f3f001c1          DCB      0xf3,0xf0,0x01,0xc1
000de4  e0000000          DCB      0xe0,0x00,0x00,0x00
000de8  00000000          DCB      0x00,0x00,0x00,0x00
000dec  f80003fc          DCB      0xf8,0x00,0x03,0xfc
000df0  30030638          DCB      0x30,0x03,0x06,0x38
000df4  04020804          DCB      0x04,0x02,0x08,0x04
000df8  02080402          DCB      0x02,0x08,0x04,0x02
000dfc  08040410          DCB      0x08,0x04,0x04,0x10
000e00  0308f001          DCB      0x03,0x08,0xf0,0x01
000e04  ffc0007f          DCB      0xff,0xc0,0x00,0x7f
000e08  00000000          DCB      0x00,0x00,0x00,0x00
000e0c  00000000          DCB      0x00,0x00,0x00,0x00
000e10  00000000          DCB      0x00,0x00,0x00,0x00
000e14  00000000          DCB      0x00,0x00,0x00,0x00
000e18  00000000          DCB      0x00,0x00,0x00,0x00
000e1c  70380070          DCB      0x70,0x38,0x00,0x70
000e20  38007038          DCB      0x38,0x00,0x70,0x38
000e24  00000000          DCB      0x00,0x00,0x00,0x00
000e28  00000000          DCB      0x00,0x00,0x00,0x00
000e2c  00000000          DCB      0x00,0x00,0x00,0x00
000e30  00000000          DCB      0x00,0x00,0x00,0x00
000e34  00000000          DCB      0x00,0x00,0x00,0x00
000e38  00000000          DCB      0x00,0x00,0x00,0x00
000e3c  00000000          DCB      0x00,0x00,0x00,0x00
000e40  301a0030          DCB      0x30,0x1a,0x00,0x30
000e44  1c000000          DCB      0x1c,0x00,0x00,0x00
000e48  00000000          DCB      0x00,0x00,0x00,0x00
000e4c  00000000          DCB      0x00,0x00,0x00,0x00
000e50  00000000          DCB      0x00,0x00,0x00,0x00
000e54  00000000          DCB      0x00,0x00,0x00,0x00
000e58  00000008          DCB      0x00,0x00,0x00,0x08
000e5c  00001400          DCB      0x00,0x00,0x14,0x00
000e60  00220000          DCB      0x00,0x22,0x00,0x00
000e64  41000080          DCB      0x41,0x00,0x00,0x80
000e68  80010040          DCB      0x80,0x01,0x00,0x40
000e6c  02002004          DCB      0x02,0x00,0x20,0x04
000e70  00100800          DCB      0x00,0x10,0x08,0x00
000e74  08000000          DCB      0x08,0x00,0x00,0x00
000e78  00000000          DCB      0x00,0x00,0x00,0x00
000e7c  21000021          DCB      0x21,0x00,0x00,0x21
000e80  00002100          DCB      0x00,0x00,0x21,0x00
000e84  00210000          DCB      0x00,0x21,0x00,0x00
000e88  21000021          DCB      0x21,0x00,0x00,0x21
000e8c  00002100          DCB      0x00,0x00,0x21,0x00
000e90  00210000          DCB      0x00,0x21,0x00,0x00
000e94  21000021          DCB      0x21,0x00,0x00,0x21
000e98  00000000          DCB      0x00,0x00,0x00,0x00
000e9c  00000000          DCB      0x00,0x00,0x00,0x00
000ea0  00000800          DCB      0x00,0x00,0x08,0x00
000ea4  08040010          DCB      0x08,0x04,0x00,0x10
000ea8  02002001          DCB      0x02,0x00,0x20,0x01
000eac  00400080          DCB      0x00,0x40,0x00,0x80
000eb0  80004100          DCB      0x80,0x00,0x41,0x00
000eb4  00220000          DCB      0x00,0x22,0x00,0x00
000eb8  14000008          DCB      0x14,0x00,0x00,0x08
000ebc  00000000          DCB      0x00,0x00,0x00,0x00
000ec0  00000003          DCB      0x00,0x00,0x00,0x03
000ec4  c00004c0          DCB      0xc0,0x00,0x04,0xc0
000ec8  00040000          DCB      0x00,0x04,0x00,0x00
000ecc  08003808          DCB      0x08,0x00,0x38,0x08
000ed0  0f380808          DCB      0x0f,0x38,0x08,0x08
000ed4  38081000          DCB      0x38,0x08,0x10,0x00
000ed8  0c300007          DCB      0x0c,0x30,0x00,0x07
000edc  e00003c0          DCB      0xe0,0x00,0x03,0xc0
000ee0  00000000          DCB      0x00,0x00,0x00,0x00
000ee4  00000000          DCB      0x00,0x00,0x00,0x00
000ee8  3f8000ff          DCB      0x3f,0x80,0x00,0xff
000eec  e0038070          DCB      0xe0,0x03,0x80,0x70
000ef0  020f1006          DCB      0x02,0x0f,0x10,0x06
000ef4  708804c0          DCB      0x70,0x88,0x04,0xc0
000ef8  88048308          DCB      0x88,0x04,0x83,0x08
000efc  047f8802          DCB      0x04,0x7f,0x88,0x02
000f00  c0900301          DCB      0xc0,0x90,0x03,0x01
000f04  2000fe40          DCB      0x20,0x00,0xfe,0x40
000f08  00000800          DCB      0x00,0x00,0x08,0x00
000f0c  00180001          DCB      0x00,0x18,0x00,0x01
000f10  f8003e08          DCB      0xf8,0x00,0x3e,0x08
000f14  01c20007          DCB      0x01,0xc2,0x00,0x07
000f18  020007e2          DCB      0x02,0x00,0x07,0xe2
000f1c  0000fe00          DCB      0x00,0x00,0xfe,0x00
000f20  001fc800          DCB      0x00,0x1f,0xc8,0x00
000f24  01f80000          DCB      0x01,0xf8,0x00,0x00
000f28  38000008          DCB      0x38,0x00,0x00,0x08
000f2c  04000807          DCB      0x04,0x00,0x08,0x07
000f30  fff807ff          DCB      0xff,0xf8,0x07,0xff
000f34  f8040808          DCB      0xf8,0x04,0x08,0x08
000f38  04080804          DCB      0x04,0x08,0x08,0x04
000f3c  08080408          DCB      0x08,0x08,0x04,0x08
000f40  08061808          DCB      0x08,0x06,0x18,0x08
000f44  03f41801          DCB      0x03,0xf4,0x18,0x01
000f48  e7f00001          DCB      0xe7,0xf0,0x00,0x01
000f4c  e0000000          DCB      0xe0,0x00,0x00,0x00
000f50  00000000          DCB      0x00,0x00,0x00,0x00
000f54  3f8001ff          DCB      0x3f,0x80,0x01,0xff
000f58  e0038070          DCB      0xe0,0x03,0x80,0x70
000f5c  02001804          DCB      0x02,0x00,0x18,0x04
000f60  00080400          DCB      0x00,0x08,0x04,0x00
000f64  08040008          DCB      0x08,0x04,0x00,0x08
000f68  04001006          DCB      0x04,0x00,0x10,0x06
000f6c  00200780          DCB      0x00,0x20,0x07,0x80
000f70  c0000000          DCB      0xc0,0x00,0x00,0x00
000f74  04000807          DCB      0x04,0x00,0x08,0x07
000f78  fff807ff          DCB      0xff,0xf8,0x07,0xff
000f7c  f8040008          DCB      0xf8,0x04,0x00,0x08
000f80  04000804          DCB      0x04,0x00,0x08,0x04
000f84  00080400          DCB      0x00,0x08,0x04,0x00
000f88  18020010          DCB      0x18,0x02,0x00,0x10
000f8c  03807001          DCB      0x03,0x80,0x70,0x01
000f90  ffe0007f          DCB      0xff,0xe0,0x00,0x7f
000f94  80000000          DCB      0x80,0x00,0x00,0x00
000f98  04000807          DCB      0x04,0x00,0x08,0x07
000f9c  fff807ff          DCB      0xff,0xf8,0x07,0xff
000fa0  f8040808          DCB      0xf8,0x04,0x08,0x08
000fa4  04080804          DCB      0x04,0x08,0x08,0x04
000fa8  08080408          DCB      0x08,0x08,0x04,0x08
000fac  08043e08          DCB      0x08,0x04,0x3e,0x08
000fb0  04000806          DCB      0x04,0x00,0x08,0x06
000fb4  00180100          DCB      0x00,0x18,0x01,0x00
000fb8  60000000          DCB      0x60,0x00,0x00,0x00
000fbc  04000807          DCB      0x04,0x00,0x08,0x07
000fc0  fff807ff          DCB      0xff,0xf8,0x07,0xff
000fc4  f8040808          DCB      0xf8,0x04,0x08,0x08
000fc8  04080004          DCB      0x04,0x08,0x00,0x04
000fcc  08000408          DCB      0x08,0x00,0x04,0x08
000fd0  00043e00          DCB      0x00,0x04,0x3e,0x00
000fd4  06000006          DCB      0x06,0x00,0x00,0x06
000fd8  00000180          DCB      0x00,0x00,0x01,0x80
000fdc  00000000          DCB      0x00,0x00,0x00,0x00
000fe0  00000000          DCB      0x00,0x00,0x00,0x00
000fe4  3f8001ff          DCB      0x3f,0x80,0x01,0xff
000fe8  e0038070          DCB      0xe0,0x03,0x80,0x70
000fec  06001804          DCB      0x06,0x00,0x18,0x04
000ff0  00080402          DCB      0x00,0x08,0x04,0x02
000ff4  08040208          DCB      0x08,0x04,0x02,0x08
000ff8  0203f007          DCB      0x02,0x03,0xf0,0x07
000ffc  83f00002          DCB      0x83,0xf0,0x00,0x02
001000  00000200          DCB      0x00,0x00,0x02,0x00
001004  04000807          DCB      0x04,0x00,0x08,0x07
001008  fff807ff          DCB      0xff,0xf8,0x07,0xff
00100c  f8040808          DCB      0xf8,0x04,0x08,0x08
001010  00080000          DCB      0x00,0x08,0x00,0x00
001014  08000008          DCB      0x08,0x00,0x00,0x08
001018  00000800          DCB      0x00,0x00,0x08,0x00
00101c  04080807          DCB      0x04,0x08,0x08,0x07
001020  fff807ff          DCB      0xff,0xf8,0x07,0xff
001024  f8040008          DCB      0xf8,0x04,0x00,0x08
001028  00000000          DCB      0x00,0x00,0x00,0x00
00102c  00000400          DCB      0x00,0x00,0x04,0x00
001030  08040008          DCB      0x08,0x04,0x00,0x08
001034  04000807          DCB      0x04,0x00,0x08,0x07
001038  fff807ff          DCB      0xff,0xf8,0x07,0xff
00103c  f8040008          DCB      0xf8,0x04,0x00,0x08
001040  04000804          DCB      0x04,0x00,0x08,0x04
001044  00080000          DCB      0x00,0x08,0x00,0x00
001048  00000000          DCB      0x00,0x00,0x00,0x00
00104c  00000000          DCB      0x00,0x00,0x00,0x00
001050  00060000          DCB      0x00,0x06,0x00,0x00
001054  07000001          DCB      0x07,0x00,0x00,0x01
001058  04000104          DCB      0x04,0x00,0x01,0x04
00105c  00010400          DCB      0x00,0x01,0x04,0x00
001060  0307fffe          DCB      0x03,0x07,0xff,0xfe
001064  07fffc04          DCB      0x07,0xff,0xfc,0x04
001068  00000400          DCB      0x00,0x00,0x04,0x00
00106c  00040000          DCB      0x00,0x04,0x00,0x00
001070  04000807          DCB      0x04,0x00,0x08,0x07
001074  fff807ff          DCB      0xff,0xf8,0x07,0xff
001078  f8040c08          DCB      0xf8,0x04,0x0c,0x08
00107c  00180000          DCB      0x00,0x18,0x00,0x00
001080  3e0004c7          DCB      0x3e,0x00,0x04,0xc7
001084  800503c8          DCB      0x80,0x05,0x03,0xc8
001088  0600f804          DCB      0x06,0x00,0xf8,0x04
00108c  00380400          DCB      0x00,0x38,0x04,0x00
001090  18000008          DCB      0x18,0x00,0x00,0x08
001094  04000807          DCB      0x04,0x00,0x08,0x07
001098  fff807ff          DCB      0xff,0xf8,0x07,0xff
00109c  f8040008          DCB      0xf8,0x04,0x00,0x08
0010a0  00000800          DCB      0x00,0x00,0x08,0x00
0010a4  00080000          DCB      0x00,0x08,0x00,0x00
0010a8  08000008          DCB      0x08,0x00,0x00,0x08
0010ac  00000800          DCB      0x00,0x00,0x08,0x00
0010b0  00180000          DCB      0x00,0x18,0x00,0x00
0010b4  60000000          DCB      0x60,0x00,0x00,0x00
0010b8  04000807          DCB      0x04,0x00,0x08,0x07
0010bc  fff80780          DCB      0xff,0xf8,0x07,0x80
0010c0  0807fc00          DCB      0x08,0x07,0xfc,0x00
0010c4  007fc000          DCB      0x00,0x7f,0xc0,0x00
0010c8  03f80007          DCB      0x03,0xf8,0x00,0x07
0010cc  c0007800          DCB      0xc0,0x00,0x78,0x00
0010d0  07800807          DCB      0x07,0x80,0x08,0x07
0010d4  fff807ff          DCB      0xff,0xf8,0x07,0xff
0010d8  f8040008          DCB      0xf8,0x04,0x00,0x08
0010dc  04000807          DCB      0x04,0x00,0x08,0x07
0010e0  fff80700          DCB      0xff,0xf8,0x07,0x00
0010e4  0803c000          DCB      0x08,0x03,0xc0,0x00
0010e8  00e00000          DCB      0x00,0xe0,0x00,0x00
0010ec  3800001e          DCB      0x38,0x00,0x00,0x1e
0010f0  00000700          DCB      0x00,0x00,0x07,0x00
0010f4  0001c004          DCB      0x00,0x01,0xc0,0x04
0010f8  00f007ff          DCB      0x00,0xf0,0x07,0xff
0010fc  f8040000          DCB      0xf8,0x04,0x00,0x00
001100  00000000          DCB      0x00,0x00,0x00,0x00
001104  7f8001ff          DCB      0x7f,0x80,0x01,0xff
001108  e0038070          DCB      0xe0,0x03,0x80,0x70
00110c  06001804          DCB      0x06,0x00,0x18,0x04
001110  00080400          DCB      0x00,0x08,0x04,0x00
001114  08060018          DCB      0x08,0x06,0x00,0x18
001118  03003001          DCB      0x03,0x00,0x30,0x01
00111c  ffe0007f          DCB      0xff,0xe0,0x00,0x7f
001120  80000000          DCB      0x80,0x00,0x00,0x00
001124  04000807          DCB      0x04,0x00,0x08,0x07
001128  fff807ff          DCB      0xff,0xf8,0x07,0xff
00112c  f8040408          DCB      0xf8,0x04,0x04,0x08
001130  04040004          DCB      0x04,0x04,0x00,0x04
001134  04000404          DCB      0x04,0x00,0x04,0x04
001138  00040400          DCB      0x00,0x04,0x04,0x00
00113c  060c0003          DCB      0x06,0x0c,0x00,0x03
001140  f80001f0          DCB      0xf8,0x00,0x01,0xf0
001144  00000000          DCB      0x00,0x00,0x00,0x00
001148  00000000          DCB      0x00,0x00,0x00,0x00
00114c  7f8001ff          DCB      0x7f,0x80,0x01,0xff
001150  e0038070          DCB      0xe0,0x03,0x80,0x70
001154  06008804          DCB      0x06,0x00,0x88,0x04
001158  00880400          DCB      0x00,0x88,0x04,0x00
00115c  c806003c          DCB      0xc8,0x06,0x00,0x3c
001160  03003e01          DCB      0x03,0x00,0x3e,0x01
001164  ffe6007f          DCB      0xff,0xe6,0x00,0x7f
001168  84000000          DCB      0x84,0x00,0x00,0x00
00116c  04000807          DCB      0x04,0x00,0x08,0x07
001170  fff807ff          DCB      0xff,0xf8,0x07,0xff
001174  f8040808          DCB      0xf8,0x04,0x08,0x08
001178  04080004          DCB      0x04,0x08,0x00,0x04
00117c  0c00040f          DCB      0x0c,0x00,0x04,0x0f
001180  00040bc0          DCB      0x00,0x04,0x0b,0xc0
001184  0610f003          DCB      0x06,0x10,0xf0,0x03
001188  f03801e0          DCB      0xf0,0x38,0x01,0xe0
00118c  08000008          DCB      0x08,0x00,0x00,0x08
001190  00000001          DCB      0x00,0x00,0x00,0x01
001194  e0f803f0          DCB      0xe0,0xf8,0x03,0xf0
001198  30063010          DCB      0x30,0x06,0x30,0x10
00119c  04180804          DCB      0x04,0x18,0x08,0x04
0011a0  1808040c          DCB      0x18,0x08,0x04,0x0c
0011a4  08040c08          DCB      0x08,0x04,0x0c,0x08
0011a8  02061802          DCB      0x02,0x06,0x18,0x02
0011ac  07f00781          DCB      0x07,0xf0,0x07,0x81
0011b0  e0000000          DCB      0xe0,0x00,0x00,0x00
0011b4  01800006          DCB      0x01,0x80,0x00,0x06
0011b8  00000400          DCB      0x00,0x00,0x04,0x00
0011bc  00040000          DCB      0x00,0x04,0x00,0x00
0011c0  04000807          DCB      0x04,0x00,0x08,0x07
0011c4  fff807ff          DCB      0xff,0xf8,0x07,0xff
0011c8  f8040008          DCB      0xf8,0x04,0x00,0x08
0011cc  04000004          DCB      0x04,0x00,0x00,0x04
0011d0  00000600          DCB      0x00,0x00,0x06,0x00
0011d4  00018000          DCB      0x00,0x01,0x80,0x00
0011d8  04000007          DCB      0x04,0x00,0x00,0x07
0011dc  ffe007ff          DCB      0xff,0xe0,0x07,0xff
0011e0  f0040018          DCB      0xf0,0x04,0x00,0x18
0011e4  00000800          DCB      0x00,0x00,0x08,0x00
0011e8  00080000          DCB      0x00,0x08,0x00,0x00
0011ec  08000008          DCB      0x08,0x00,0x00,0x08
0011f0  00000804          DCB      0x00,0x00,0x08,0x04
0011f4  001007ff          DCB      0x00,0x10,0x07,0xff
0011f8  e0040000          DCB      0xe0,0x04,0x00,0x00
0011fc  04000006          DCB      0x04,0x00,0x00,0x06
001200  000007e0          DCB      0x00,0x00,0x07,0xe0
001204  0007fe00          DCB      0x00,0x07,0xfe,0x00
001208  041fe000          DCB      0x04,0x1f,0xe0,0x00
00120c  01f80000          DCB      0x01,0xf8,0x00,0x00
001210  380001e0          DCB      0x38,0x00,0x01,0xe0
001214  043e0007          DCB      0x04,0x3e,0x00,0x07
001218  c0000600          DCB      0xc0,0x00,0x06,0x00
00121c  00040000          DCB      0x00,0x04,0x00,0x00
001220  04000007          DCB      0x04,0x00,0x00,0x07
001224  e00007ff          DCB      0xe0,0x00,0x07,0xff
001228  c0041ff8          DCB      0xc0,0x04,0x1f,0xf8
00122c  0007c007          DCB      0x00,0x07,0xc0,0x07
001230  f80007ff          DCB      0xf8,0x00,0x07,0xff
001234  80043ff8          DCB      0x80,0x04,0x3f,0xf8
001238  0007c004          DCB      0x00,0x07,0xc0,0x04
00123c  f8000700          DCB      0xf8,0x00,0x07,0x00
001240  00040000          DCB      0x00,0x04,0x00,0x00
001244  00000004          DCB      0x00,0x00,0x00,0x04
001248  00080600          DCB      0x00,0x08,0x06,0x00
00124c  1807c078          DCB      0x18,0x07,0xc0,0x78
001250  05f1c800          DCB      0x05,0xf1,0xc8,0x00
001254  3e00001f          DCB      0x3e,0x00,0x00,0x1f
001258  800463e8          DCB      0x80,0x04,0x63,0xe8
00125c  0780f806          DCB      0x07,0x80,0xf8,0x06
001260  00180400          DCB      0x00,0x18,0x04,0x00
001264  08000000          DCB      0x08,0x00,0x00,0x00
001268  04000006          DCB      0x04,0x00,0x00,0x06
00126c  00000780          DCB      0x00,0x00,0x07,0x80
001270  0007e008          DCB      0x00,0x07,0xe0,0x08
001274  047c0800          DCB      0x04,0x7c,0x08,0x00
001278  1ff80007          DCB      0x1f,0xf8,0x00,0x07
00127c  f8001808          DCB      0xf8,0x00,0x18,0x08
001280  04e00807          DCB      0x04,0xe0,0x08,0x07
001284  00000600          DCB      0x00,0x00,0x06,0x00
001288  00040000          DCB      0x00,0x04,0x00,0x00
00128c  00000001          DCB      0x00,0x00,0x00,0x01
001290  00080600          DCB      0x00,0x08,0x06,0x00
001294  380400f8          DCB      0x38,0x04,0x00,0xf8
001298  0403e804          DCB      0x04,0x03,0xe8,0x04
00129c  0f08047c          DCB      0x0f,0x08,0x04,0x7c
0012a0  0805f008          DCB      0x08,0x05,0xf0,0x08
0012a4  07c00807          DCB      0x07,0xc0,0x08,0x07
0012a8  00180400          DCB      0x00,0x18,0x04,0x00
0012ac  60000000          DCB      0x60,0x00,0x00,0x00
0012b0  00000000          DCB      0x00,0x00,0x00,0x00
0012b4  00000000          DCB      0x00,0x00,0x00,0x00
0012b8  00000000          DCB      0x00,0x00,0x00,0x00
0012bc  0000003f          DCB      0x00,0x00,0x00,0x3f
0012c0  fffe2000          DCB      0xff,0xfe,0x20,0x00
0012c4  02200002          DCB      0x02,0x20,0x00,0x02
0012c8  20000220          DCB      0x20,0x00,0x02,0x20
0012cc  00022000          DCB      0x00,0x02,0x20,0x00
0012d0  02000000          DCB      0x02,0x00,0x00,0x00
0012d4  00000000          DCB      0x00,0x00,0x00,0x00
0012d8  00000800          DCB      0x00,0x00,0x08,0x00
0012dc  00070000          DCB      0x00,0x07,0x00,0x00
0012e0  00c00000          DCB      0x00,0xc0,0x00,0x00
0012e4  38000006          DCB      0x38,0x00,0x00,0x06
0012e8  000001c0          DCB      0x00,0x00,0x01,0xc0
0012ec  00003000          DCB      0x00,0x00,0x30,0x00
0012f0  000e0000          DCB      0x00,0x0e,0x00,0x00
0012f4  01000000          DCB      0x01,0x00,0x00,0x00
0012f8  00000000          DCB      0x00,0x00,0x00,0x00
0012fc  00002000          DCB      0x00,0x00,0x20,0x00
001300  02200002          DCB      0x02,0x20,0x00,0x02
001304  20000220          DCB      0x20,0x00,0x02,0x20
001308  00022000          DCB      0x00,0x02,0x20,0x00
00130c  023ffffe          DCB      0x02,0x3f,0xff,0xfe
001310  00000000          DCB      0x00,0x00,0x00,0x00
001314  00000000          DCB      0x00,0x00,0x00,0x00
001318  00000000          DCB      0x00,0x00,0x00,0x00
00131c  00000000          DCB      0x00,0x00,0x00,0x00
001320  00000000          DCB      0x00,0x00,0x00,0x00
001324  00080000          DCB      0x00,0x08,0x00,0x00
001328  10000030          DCB      0x10,0x00,0x00,0x30
00132c  00002000          DCB      0x00,0x00,0x20,0x00
001330  00300000          DCB      0x00,0x30,0x00,0x00
001334  10000008          DCB      0x10,0x00,0x00,0x08
001338  00000000          DCB      0x00,0x00,0x00,0x00
00133c  00000000          DCB      0x00,0x00,0x00,0x00
001340  00000100          DCB      0x00,0x00,0x01,0x00
001344  00010000          DCB      0x00,0x01,0x00,0x00
001348  01000001          DCB      0x01,0x00,0x00,0x01
00134c  00000100          DCB      0x00,0x00,0x01,0x00
001350  00010000          DCB      0x00,0x01,0x00,0x00
001354  01000001          DCB      0x01,0x00,0x00,0x01
001358  00000100          DCB      0x00,0x00,0x01,0x00
00135c  00010000          DCB      0x00,0x01,0x00,0x00
001360  01000001          DCB      0x01,0x00,0x00,0x01
001364  00000000          DCB      0x00,0x00,0x00,0x00
001368  00000000          DCB      0x00,0x00,0x00,0x00
00136c  00200000          DCB      0x00,0x20,0x00,0x00
001370  20000010          DCB      0x20,0x00,0x00,0x10
001374  00001000          DCB      0x00,0x00,0x10,0x00
001378  00000000          DCB      0x00,0x00,0x00,0x00
00137c  00000000          DCB      0x00,0x00,0x00,0x00
001380  00000000          DCB      0x00,0x00,0x00,0x00
001384  00000000          DCB      0x00,0x00,0x00,0x00
001388  00000000          DCB      0x00,0x00,0x00,0x00
00138c  00f00019          DCB      0x00,0xf0,0x00,0x19
001390  f8001b18          DCB      0xf8,0x00,0x1b,0x18
001394  00220800          DCB      0x00,0x22,0x08,0x00
001398  26080024          DCB      0x26,0x08,0x00,0x24
00139c  08002410          DCB      0x08,0x00,0x24,0x10
0013a0  003ff800          DCB      0x00,0x3f,0xf8,0x00
0013a4  1ff80000          DCB      0x1f,0xf8,0x00,0x00
0013a8  08000018          DCB      0x08,0x00,0x00,0x18
0013ac  00000004          DCB      0x00,0x00,0x00,0x04
0013b0  000007ff          DCB      0x00,0x00,0x07,0xff
0013b4  f80ffff0          DCB      0xf8,0x0f,0xff,0xf0
0013b8  00181800          DCB      0x00,0x18,0x18,0x00
0013bc  10080020          DCB      0x10,0x08,0x00,0x20
0013c0  08002008          DCB      0x08,0x00,0x20,0x08
0013c4  00301800          DCB      0x00,0x30,0x18,0x00
0013c8  1ff0000f          DCB      0x1f,0xf0,0x00,0x0f
0013cc  c0000000          DCB      0xc0,0x00,0x00,0x00
0013d0  00000000          DCB      0x00,0x00,0x00,0x00
0013d4  07c0001f          DCB      0x07,0xc0,0x00,0x1f
0013d8  f0001830          DCB      0xf0,0x00,0x18,0x30
0013dc  00200800          DCB      0x00,0x20,0x08,0x00
0013e0  20080020          DCB      0x20,0x08,0x00,0x20
0013e4  08003c08          DCB      0x08,0x00,0x3c,0x08
0013e8  001c1000          DCB      0x00,0x1c,0x10,0x00
0013ec  00600000          DCB      0x00,0x60,0x00,0x00
0013f0  00000000          DCB      0x00,0x00,0x00,0x00
0013f4  00000000          DCB      0x00,0x00,0x00,0x00
0013f8  07c0001f          DCB      0x07,0xc0,0x00,0x1f
0013fc  f0003818          DCB      0xf0,0x00,0x38,0x18
001400  00200800          DCB      0x00,0x20,0x08,0x00
001404  20080020          DCB      0x20,0x08,0x00,0x20
001408  08041010          DCB      0x08,0x04,0x10,0x10
00140c  07fff80f          DCB      0x07,0xff,0xf8,0x0f
001410  fff00000          DCB      0xff,0xf0,0x00,0x00
001414  10000000          DCB      0x10,0x00,0x00,0x00
001418  00000000          DCB      0x00,0x00,0x00,0x00
00141c  00000007          DCB      0x00,0x00,0x00,0x07
001420  c0001ff0          DCB      0xc0,0x00,0x1f,0xf0
001424  00123000          DCB      0x00,0x12,0x30,0x00
001428  22180022          DCB      0x22,0x18,0x00,0x22
00142c  08002208          DCB      0x08,0x00,0x22,0x08
001430  00320800          DCB      0x00,0x32,0x08,0x00
001434  1e10000e          DCB      0x1e,0x10,0x00,0x0e
001438  20000000          DCB      0x20,0x00,0x00,0x00
00143c  00000000          DCB      0x00,0x00,0x00,0x00
001440  20000020          DCB      0x20,0x00,0x00,0x20
001444  08002008          DCB      0x08,0x00,0x20,0x08
001448  01fff803          DCB      0x01,0xff,0xf8,0x03
00144c  fff80620          DCB      0xff,0xf8,0x06,0x20
001450  08042008          DCB      0x08,0x04,0x20,0x08
001454  04200807          DCB      0x04,0x20,0x08,0x07
001458  20000300          DCB      0x20,0x00,0x03,0x00
00145c  00000000          DCB      0x00,0x00,0x00,0x00
001460  00000000          DCB      0x00,0x00,0x00,0x00
001464  000e000e          DCB      0x00,0x0e,0x00,0x0e
001468  6e001ff3          DCB      0x6e,0x00,0x1f,0xf3
00146c  0031b100          DCB      0x00,0x31,0xb1,0x00
001470  20b10020          DCB      0x20,0xb1,0x00,0x20
001474  b1003191          DCB      0xb1,0x00,0x31,0x91
001478  001f1300          DCB      0x00,0x1f,0x13,0x00
00147c  2e1e0020          DCB      0x2e,0x1e,0x00,0x20
001480  0e003000          DCB      0x0e,0x00,0x30,0x00
001484  00000004          DCB      0x00,0x00,0x00,0x04
001488  000807ff          DCB      0x00,0x08,0x07,0xff
00148c  f80ffff8          DCB      0xf8,0x0f,0xff,0xf8
001490  00100800          DCB      0x00,0x10,0x08,0x00
001494  20000020          DCB      0x20,0x00,0x00,0x20
001498  00002008          DCB      0x00,0x00,0x20,0x08
00149c  003ff800          DCB      0x00,0x3f,0xf8,0x00
0014a0  1ff80000          DCB      0x1f,0xf8,0x00,0x00
0014a4  08000000          DCB      0x08,0x00,0x00,0x00
0014a8  00000000          DCB      0x00,0x00,0x00,0x00
0014ac  00000020          DCB      0x00,0x00,0x00,0x20
0014b0  08002008          DCB      0x08,0x00,0x20,0x08
0014b4  00200806          DCB      0x00,0x20,0x08,0x06
0014b8  3ff8063f          DCB      0x3f,0xf8,0x06,0x3f
0014bc  f8000008          DCB      0xf8,0x00,0x00,0x08
0014c0  00000800          DCB      0x00,0x00,0x08,0x00
0014c4  00080000          DCB      0x00,0x08,0x00,0x00
0014c8  00000000          DCB      0x00,0x00,0x00,0x00
0014cc  00000000          DCB      0x00,0x00,0x00,0x00
0014d0  00000000          DCB      0x00,0x00,0x00,0x00
0014d4  03000003          DCB      0x03,0x00,0x00,0x03
0014d8  00200100          DCB      0x00,0x20,0x01,0x00
0014dc  20010020          DCB      0x20,0x01,0x00,0x20
0014e0  03063ffe          DCB      0x03,0x06,0x3f,0xfe
0014e4  063ffc00          DCB      0x06,0x3f,0xfc,0x00
0014e8  00000000          DCB      0x00,0x00,0x00,0x00
0014ec  00000000          DCB      0x00,0x00,0x00,0x00
0014f0  00000004          DCB      0x00,0x00,0x00,0x04
0014f4  000807ff          DCB      0x00,0x08,0x07,0xff
0014f8  f80ffff8          DCB      0xf8,0x0f,0xff,0xf8
0014fc  00018800          DCB      0x00,0x01,0x88,0x00
001500  0300002f          DCB      0x03,0x00,0x00,0x2f
001504  c00038f8          DCB      0xc0,0x00,0x38,0xf8
001508  00203800          DCB      0x00,0x20,0x38,0x00
00150c  20080000          DCB      0x20,0x08,0x00,0x00
001510  08000000          DCB      0x08,0x00,0x00,0x00
001514  00000000          DCB      0x00,0x00,0x00,0x00
001518  00000400          DCB      0x00,0x00,0x04,0x00
00151c  08040008          DCB      0x08,0x04,0x00,0x08
001520  04000807          DCB      0x04,0x00,0x08,0x07
001524  fff80fff          DCB      0xff,0xf8,0x0f,0xff
001528  f8000008          DCB      0xf8,0x00,0x00,0x08
00152c  00000800          DCB      0x00,0x00,0x08,0x00
001530  00080000          DCB      0x00,0x08,0x00,0x00
001534  00000000          DCB      0x00,0x00,0x00,0x00
001538  00200800          DCB      0x00,0x20,0x08,0x00
00153c  3ff8003f          DCB      0x3f,0xf8,0x00,0x3f
001540  f8001008          DCB      0xf8,0x00,0x10,0x08
001544  00200000          DCB      0x00,0x20,0x00,0x00
001548  3ff8003f          DCB      0x3f,0xf8,0x00,0x3f
00154c  f8001008          DCB      0xf8,0x00,0x10,0x08
001550  00200000          DCB      0x00,0x20,0x00,0x00
001554  3ff8003f          DCB      0x3f,0xf8,0x00,0x3f
001558  f8000008          DCB      0xf8,0x00,0x00,0x08
00155c  00000000          DCB      0x00,0x00,0x00,0x00
001560  2008003f          DCB      0x20,0x08,0x00,0x3f
001564  f8003ff8          DCB      0xf8,0x00,0x3f,0xf8
001568  00100800          DCB      0x00,0x10,0x08,0x00
00156c  10000020          DCB      0x10,0x00,0x00,0x20
001570  00002008          DCB      0x00,0x00,0x20,0x08
001574  003ff800          DCB      0x00,0x3f,0xf8,0x00
001578  1ff80000          DCB      0x1f,0xf8,0x00,0x00
00157c  08000000          DCB      0x08,0x00,0x00,0x00
001580  00000000          DCB      0x00,0x00,0x00,0x00
001584  07c0000f          DCB      0x07,0xc0,0x00,0x0f
001588  f0001830          DCB      0xf0,0x00,0x18,0x30
00158c  00300800          DCB      0x00,0x30,0x08,0x00
001590  20080020          DCB      0x20,0x08,0x00,0x20
001594  08003008          DCB      0x08,0x00,0x30,0x08
001598  00183000          DCB      0x00,0x18,0x30,0x00
00159c  0ff00007          DCB      0x0f,0xf0,0x00,0x07
0015a0  c0000000          DCB      0xc0,0x00,0x00,0x00
0015a4  00000000          DCB      0x00,0x00,0x00,0x00
0015a8  2001003f          DCB      0x20,0x01,0x00,0x3f
0015ac  ff003fff          DCB      0xff,0x00,0x3f,0xff
0015b0  00101100          DCB      0x00,0x10,0x11,0x00
0015b4  20090020          DCB      0x20,0x09,0x00,0x20
0015b8  08002008          DCB      0x08,0x00,0x20,0x08
0015bc  00303800          DCB      0x00,0x30,0x38,0x00
0015c0  1ff0000f          DCB      0x1f,0xf0,0x00,0x0f
0015c4  c0000000          DCB      0xc0,0x00,0x00,0x00
0015c8  00000000          DCB      0x00,0x00,0x00,0x00
0015cc  07c0001f          DCB      0x07,0xc0,0x00,0x1f
0015d0  f0003818          DCB      0xf0,0x00,0x38,0x18
0015d4  00200800          DCB      0x00,0x20,0x08,0x00
0015d8  20080020          DCB      0x20,0x08,0x00,0x20
0015dc  09001011          DCB      0x09,0x00,0x10,0x11
0015e0  001fff00          DCB      0x00,0x1f,0xff,0x00
0015e4  3fff0000          DCB      0x3f,0xff,0x00,0x00
0015e8  01000000          DCB      0x01,0x00,0x00,0x00
0015ec  00200800          DCB      0x00,0x20,0x08,0x00
0015f0  20080020          DCB      0x20,0x08,0x00,0x20
0015f4  08003ff8          DCB      0x08,0x00,0x3f,0xf8
0015f8  003ff800          DCB      0x00,0x3f,0xf8,0x00
0015fc  08080010          DCB      0x08,0x08,0x00,0x10
001600  08002008          DCB      0x08,0x00,0x20,0x08
001604  00200000          DCB      0x00,0x20,0x00,0x00
001608  30000030          DCB      0x30,0x00,0x00,0x30
00160c  00000000          DCB      0x00,0x00,0x00,0x00
001610  00000000          DCB      0x00,0x00,0x00,0x00
001614  0000000c          DCB      0x00,0x00,0x00,0x0c
001618  78001e18          DCB      0x78,0x00,0x1e,0x18
00161c  00330800          DCB      0x00,0x33,0x08,0x00
001620  23080021          DCB      0x23,0x08,0x00,0x21
001624  08002188          DCB      0x08,0x00,0x21,0x88
001628  00219800          DCB      0x00,0x21,0x98,0x00
00162c  30f00038          DCB      0x30,0xf0,0x00,0x38
001630  60000000          DCB      0x60,0x00,0x00,0x00
001634  00000000          DCB      0x00,0x00,0x00,0x00
001638  20000020          DCB      0x20,0x00,0x00,0x20
00163c  00002000          DCB      0x00,0x00,0x20,0x00
001640  00fff003          DCB      0x00,0xff,0xf0,0x03
001644  fff80020          DCB      0xff,0xf8,0x00,0x20
001648  08002008          DCB      0x08,0x00,0x20,0x08
00164c  00200800          DCB      0x00,0x20,0x08,0x00
001650  00300000          DCB      0x00,0x30,0x00,0x00
001654  00000000          DCB      0x00,0x00,0x00,0x00
001658  00000000          DCB      0x00,0x00,0x00,0x00
00165c  2000003f          DCB      0x20,0x00,0x00,0x3f
001660  f0007ff8          DCB      0xf0,0x00,0x7f,0xf8
001664  00001800          DCB      0x00,0x00,0x18,0x00
001668  00080000          DCB      0x00,0x08,0x00,0x00
00166c  08002010          DCB      0x08,0x00,0x20,0x10
001670  003ff800          DCB      0x00,0x3f,0xf8,0x00
001674  7ff00000          DCB      0x7f,0xf0,0x00,0x00
001678  10000000          DCB      0x10,0x00,0x00,0x00
00167c  00000000          DCB      0x00,0x00,0x00,0x00
001680  20000030          DCB      0x20,0x00,0x00,0x30
001684  00003c00          DCB      0x00,0x00,0x3c,0x00
001688  003f8000          DCB      0x00,0x3f,0x80,0x00
00168c  23f00000          DCB      0x23,0xf0,0x00,0x00
001690  78000070          DCB      0x78,0x00,0x00,0x70
001694  00238000          DCB      0x00,0x23,0x80,0x00
001698  3c000030          DCB      0x3c,0x00,0x00,0x30
00169c  00002000          DCB      0x00,0x00,0x20,0x00
0016a0  00200000          DCB      0x00,0x20,0x00,0x00
0016a4  3c00003f          DCB      0x3c,0x00,0x00,0x3f
0016a8  e00023f8          DCB      0xe0,0x00,0x23,0xf8
0016ac  0000e000          DCB      0x00,0x00,0xe0,0x00
0016b0  2700003e          DCB      0x27,0x00,0x00,0x3e
0016b4  00003fe0          DCB      0x00,0x00,0x3f,0xe0
0016b8  0021f800          DCB      0x00,0x21,0xf8,0x00
0016bc  01e0003e          DCB      0x01,0xe0,0x00,0x3e
0016c0  00002000          DCB      0x00,0x00,0x20,0x00
0016c4  00000000          DCB      0x00,0x00,0x00,0x00
0016c8  20080020          DCB      0x20,0x08,0x00,0x20
0016cc  08003838          DCB      0x08,0x00,0x38,0x38
0016d0  003e6800          DCB      0x00,0x3e,0x68,0x00
0016d4  27800003          DCB      0x27,0x80,0x00,0x03
0016d8  c8002cf8          DCB      0xc8,0x00,0x2c,0xf8
0016dc  00383800          DCB      0x00,0x38,0x38,0x00
0016e0  20180020          DCB      0x20,0x18,0x00,0x20
0016e4  08000000          DCB      0x08,0x00,0x00,0x00
0016e8  00000000          DCB      0x00,0x00,0x00,0x00
0016ec  20000030          DCB      0x20,0x00,0x00,0x30
0016f0  03003c01          DCB      0x03,0x00,0x3c,0x01
0016f4  003f8300          DCB      0x00,0x3f,0x83,0x00
0016f8  23ec0000          DCB      0x23,0xec,0x00,0x00
0016fc  70002380          DCB      0x70,0x00,0x23,0x80
001700  003c0000          DCB      0x00,0x3c,0x00,0x00
001704  20000020          DCB      0x20,0x00,0x00,0x20
001708  00000000          DCB      0x00,0x00,0x00,0x00
00170c  00000000          DCB      0x00,0x00,0x00,0x00
001710  00000038          DCB      0x00,0x00,0x00,0x38
001714  08002038          DCB      0x08,0x00,0x20,0x38
001718  0020f800          DCB      0x00,0x20,0xf8,0x00
00171c  23e8002f          DCB      0x23,0xe8,0x00,0x2f
001720  88003e08          DCB      0x88,0x00,0x3e,0x08
001724  00380800          DCB      0x00,0x38,0x08,0x00
001728  20180000          DCB      0x20,0x18,0x00,0x00
00172c  70000000          DCB      0x70,0x00,0x00,0x00
001730  00000000          DCB      0x00,0x00,0x00,0x00
001734  00000000          DCB      0x00,0x00,0x00,0x00
001738  00000000          DCB      0x00,0x00,0x00,0x00
00173c  00000000          DCB      0x00,0x00,0x00,0x00
001740  08000014          DCB      0x08,0x00,0x00,0x14
001744  001ff7fc          DCB      0x00,0x1f,0xf7,0xfc
001748  30000620          DCB      0x30,0x00,0x06,0x20
00174c  00020000          DCB      0x00,0x02,0x00,0x00
001750  00000000          DCB      0x00,0x00,0x00,0x00
001754  00000000          DCB      0x00,0x00,0x00,0x00
001758  00000000          DCB      0x00,0x00,0x00,0x00
00175c  00000000          DCB      0x00,0x00,0x00,0x00
001760  00000000          DCB      0x00,0x00,0x00,0x00
001764  0000ffff          DCB      0x00,0x00,0xff,0xff
001768  ff000000          DCB      0xff,0x00,0x00,0x00
00176c  00000000          DCB      0x00,0x00,0x00,0x00
001770  00000000          DCB      0x00,0x00,0x00,0x00
001774  00000000          DCB      0x00,0x00,0x00,0x00
001778  00000000          DCB      0x00,0x00,0x00,0x00
00177c  00002000          DCB      0x00,0x00,0x20,0x00
001780  02300006          DCB      0x02,0x30,0x00,0x06
001784  1ff7fc00          DCB      0x1f,0xf7,0xfc,0x00
001788  14000008          DCB      0x14,0x00,0x00,0x08
00178c  00000000          DCB      0x00,0x00,0x00,0x00
001790  00000000          DCB      0x00,0x00,0x00,0x00
001794  00000000          DCB      0x00,0x00,0x00,0x00
001798  00000000          DCB      0x00,0x00,0x00,0x00
00179c  00000018          DCB      0x00,0x00,0x00,0x18
0017a0  00006000          DCB      0x00,0x00,0x60,0x00
0017a4  00400000          DCB      0x00,0x40,0x00,0x00
0017a8  40000020          DCB      0x40,0x00,0x00,0x20
0017ac  00001000          DCB      0x00,0x00,0x10,0x00
0017b0  00080000          DCB      0x00,0x08,0x00,0x00
0017b4  04000004          DCB      0x04,0x00,0x00,0x04
0017b8  00000c00          DCB      0x00,0x00,0x0c,0x00
0017bc  00100000          DCB      0x00,0x10,0x00,0x00

                          AREA ||.data||, DATA, ALIGN=1

                  POINT_COLOR
000000  0000              DCW      0x0000
                  BACK_COLOR
000002  ffff              DCW      0xffff
